
tankworld.elf:     file format elf32-littlenios2
tankworld.elf
architecture: nios2:r1, flags 0x00000112:
EXEC_P, HAS_SYMS, D_PAGED
start address 0x08000230

Program Header:
    LOAD off    0x00001000 vaddr 0x08000000 paddr 0x08000000 align 2**12
         filesz 0x00000020 memsz 0x00000020 flags r-x
    LOAD off    0x00001020 vaddr 0x08000020 paddr 0x08000020 align 2**12
         filesz 0x0001b56c memsz 0x0001b56c flags r-x
    LOAD off    0x0001c58c vaddr 0x0801b58c paddr 0x0801d5a0 align 2**12
         filesz 0x00002014 memsz 0x00002014 flags rw-
    LOAD off    0x0001e5b4 vaddr 0x0801f5b4 paddr 0x0801f5b4 align 2**12
         filesz 0x00000000 memsz 0x00000308 flags rw-

Sections:
Idx Name          Size      VMA       LMA       File off  Algn
  0 .entry        00000020  08000000  08000000  00001000  2**5
                  CONTENTS, ALLOC, LOAD, READONLY, CODE
  1 .exceptions   00000210  08000020  08000020  00001020  2**2
                  CONTENTS, ALLOC, LOAD, READONLY, CODE
  2 .text         0001aabc  08000230  08000230  00001230  2**2
                  CONTENTS, ALLOC, LOAD, READONLY, CODE
  3 .rodata       000008a0  0801acec  0801acec  0001bcec  2**2
                  CONTENTS, ALLOC, LOAD, READONLY, DATA
  4 .rwdata       00002014  0801b58c  0801d5a0  0001c58c  2**2
                  CONTENTS, ALLOC, LOAD, DATA, SMALL_DATA
  5 .bss          00000308  0801f5b4  0801f5b4  0001e5b4  2**2
                  ALLOC, SMALL_DATA
  6 .onchip_memory2_0 00000000  00000000  00000000  0001e5a0  2**0
                  CONTENTS
  7 .sdram        00000000  0801f8bc  0801f8bc  0001e5a0  2**0
                  CONTENTS
  8 .comment      00000023  00000000  00000000  0001e5a0  2**0
                  CONTENTS, READONLY
  9 .debug_aranges 00001178  00000000  00000000  0001e5c8  2**3
                  CONTENTS, READONLY, DEBUGGING
 10 .debug_info   0002d025  00000000  00000000  0001f740  2**0
                  CONTENTS, READONLY, DEBUGGING
 11 .debug_abbrev 0000b239  00000000  00000000  0004c765  2**0
                  CONTENTS, READONLY, DEBUGGING
 12 .debug_line   0000ec33  00000000  00000000  0005799e  2**0
                  CONTENTS, READONLY, DEBUGGING
 13 .debug_frame  0000345c  00000000  00000000  000665d4  2**2
                  CONTENTS, READONLY, DEBUGGING
 14 .debug_str    000051f1  00000000  00000000  00069a30  2**0
                  CONTENTS, READONLY, DEBUGGING
 15 .debug_loc    0001cd8b  00000000  00000000  0006ec21  2**0
                  CONTENTS, READONLY, DEBUGGING
 16 .debug_alt_sim_info 00000040  00000000  00000000  0008b9ac  2**2
                  CONTENTS, READONLY, DEBUGGING
 17 .debug_ranges 00001b40  00000000  00000000  0008b9f0  2**3
                  CONTENTS, READONLY, DEBUGGING
 18 .thread_model 00000003  00000000  00000000  00091cca  2**0
                  CONTENTS, READONLY
 19 .cpu          0000000c  00000000  00000000  00091ccd  2**0
                  CONTENTS, READONLY
 20 .qsys         00000001  00000000  00000000  00091cd9  2**0
                  CONTENTS, READONLY
 21 .simulation_enabled 00000001  00000000  00000000  00091cda  2**0
                  CONTENTS, READONLY
 22 .sysid_hash   00000004  00000000  00000000  00091cdb  2**0
                  CONTENTS, READONLY
 23 .sysid_base   00000004  00000000  00000000  00091cdf  2**0
                  CONTENTS, READONLY
 24 .sysid_time   00000004  00000000  00000000  00091ce3  2**0
                  CONTENTS, READONLY
 25 .stderr_dev   0000000b  00000000  00000000  00091ce7  2**0
                  CONTENTS, READONLY
 26 .stdin_dev    0000000b  00000000  00000000  00091cf2  2**0
                  CONTENTS, READONLY
 27 .stdout_dev   0000000b  00000000  00000000  00091cfd  2**0
                  CONTENTS, READONLY
 28 .sopc_system_name 00000007  00000000  00000000  00091d08  2**0
                  CONTENTS, READONLY
 29 .quartus_project_dir 00000022  00000000  00000000  00091d0f  2**0
                  CONTENTS, READONLY
 30 .jdi          00004e1f  00000000  00000000  00091d31  2**0
                  CONTENTS, READONLY
 31 .sopcinfo     00099196  00000000  00000000  00096b50  2**0
                  CONTENTS, READONLY
SYMBOL TABLE:
08000000 l    d  .entry	00000000 .entry
08000020 l    d  .exceptions	00000000 .exceptions
08000230 l    d  .text	00000000 .text
0801acec l    d  .rodata	00000000 .rodata
0801b58c l    d  .rwdata	00000000 .rwdata
0801f5b4 l    d  .bss	00000000 .bss
00000000 l    d  .onchip_memory2_0	00000000 .onchip_memory2_0
0801f8bc l    d  .sdram	00000000 .sdram
00000000 l    d  .comment	00000000 .comment
00000000 l    d  .debug_aranges	00000000 .debug_aranges
00000000 l    d  .debug_info	00000000 .debug_info
00000000 l    d  .debug_abbrev	00000000 .debug_abbrev
00000000 l    d  .debug_line	00000000 .debug_line
00000000 l    d  .debug_frame	00000000 .debug_frame
00000000 l    d  .debug_str	00000000 .debug_str
00000000 l    d  .debug_loc	00000000 .debug_loc
00000000 l    d  .debug_alt_sim_info	00000000 .debug_alt_sim_info
00000000 l    d  .debug_ranges	00000000 .debug_ranges
00000000 l    df *ABS*	00000000 ../tankworld_bsp//obj/HAL/src/crt0.o
08000268 l       .text	00000000 alt_after_alt_main
00000000 l    df *ABS*	00000000 alt_irq_handler.c
00000000 l    df *ABS*	00000000 alt_instruction_exception_entry.c
00000000 l    df *ABS*	00000000 game.c
0801d538 l     O .rwdata	00000004 vga_ctrl
0801b58c l     O .rwdata	00000170 colors
0801f5b4 l     O .bss	00000004 menu_state
0801f5b8 l     O .bss	00000001 last_key
0801f5bc l     O .bss	00000004 cursor_pos
0800026c l     F .text	00000078 _check_overlap
08000a50 l     F .text	00000040 __pull_back_up_walls
0801f5c0 l     O .bss	00000004 i.2649
08000a90 l     F .text	0000035c _get_real_wall_pos
0801b6fc l     O .rwdata	00000020 back_up_positions.2660
0801f5c4 l     O .bss	00000004 wall_drawn.2676
08001390 l     F .text	0000010c clear_except_score_panel
08001e34 l     F .text	000002c4 check_gear_legal_pos
080020f8 l     F .text	00000084 calc_dis
0801b71c l     O .rwdata	00000018 last_coin_pos.2836
0801b734 l     O .rwdata	00000010 last_gear_pos.2837
00000000 l    df *ABS*	00000000 main.c
0801d53c l     O .rwdata	00000004 vga_ctrl
0801b744 l     O .rwdata	00000170 colors
0801f5c8 l     O .bss	00000004 menu_state
0801f5cc l     O .bss	00000001 last_key
0801d540 l     O .rwdata	00000001 addr
00000000 l    df *ABS*	00000000 pio.c
00000000 l    df *ABS*	00000000 sgtl5000.c
00000000 l    df *ABS*	00000000 sgtl5000_test.c
0801d544 l     O .rwdata	00000004 sgtl5000_mmap
00000000 l    df *ABS*	00000000 text_mode_vga.c
0801d548 l     O .rwdata	00000004 vga_ctrl
0801b8b4 l     O .rwdata	00000170 colors
0801f5d0 l     O .bss	00000004 menu_state
0801f5d4 l     O .bss	00000001 last_key
00000000 l    df *ABS*	00000000 HID.c
00000000 l    df *ABS*	00000000 MAX3421E.c
00000000 l    df *ABS*	00000000 transfer.c
0801f5e4 l     O .bss	00000004 usb_delay.2608
0801f5e8 l     O .bss	00000001 tmp_addr.2609
00000000 l    df *ABS*	00000000 lib2-divmod.c
00000000 l    df *ABS*	00000000 lib2-mul.c
00000000 l    df *ABS*	00000000 memcpy.c
00000000 l    df *ABS*	00000000 printf.c
00000000 l    df *ABS*	00000000 putchar.c
00000000 l    df *ABS*	00000000 puts.c
00000000 l    df *ABS*	00000000 rand.c
00000000 l    df *ABS*	00000000 sprintf.c
00000000 l    df *ABS*	00000000 strlen.c
00000000 l    df *ABS*	00000000 vfprintf.c
0801b266 l     O .rodata	00000010 zeroes.4389
0801b276 l     O .rodata	00000010 blanks.4388
00000000 l    df *ABS*	00000000 vfprintf.c
0801b286 l     O .rodata	00000010 zeroes.4404
0800a408 l     F .text	000000bc __sbprintf
0801b296 l     O .rodata	00000010 blanks.4403
00000000 l    df *ABS*	00000000 wsetup.c
00000000 l    df *ABS*	00000000 dtoa.c
0800a618 l     F .text	00000228 quorem
00000000 l    df *ABS*	00000000 fflush.c
00000000 l    df *ABS*	00000000 findfp.c
0800c170 l     F .text	00000008 __fp_unlock
0800c184 l     F .text	0000019c __sinit.part.1
0800c320 l     F .text	00000008 __fp_lock
00000000 l    df *ABS*	00000000 mallocr.c
00000000 l    df *ABS*	00000000 fvwrite.c
00000000 l    df *ABS*	00000000 fwalk.c
00000000 l    df *ABS*	00000000 impure.c
0801ba54 l     O .rwdata	00000424 impure_data
00000000 l    df *ABS*	00000000 locale.c
0801be98 l     O .rwdata	00000020 lc_ctype_charset
0801be78 l     O .rwdata	00000020 lc_message_charset
0801beb8 l     O .rwdata	00000038 lconv
00000000 l    df *ABS*	00000000 makebuf.c
00000000 l    df *ABS*	00000000 mallocr.c
00000000 l    df *ABS*	00000000 memchr.c
00000000 l    df *ABS*	00000000 memmove.c
00000000 l    df *ABS*	00000000 memset.c
00000000 l    df *ABS*	00000000 mprec.c
0801b2c8 l     O .rodata	0000000c p05.2768
00000000 l    df *ABS*	00000000 putc.c
00000000 l    df *ABS*	00000000 mallocr.c
00000000 l    df *ABS*	00000000 s_fpclassify.c
00000000 l    df *ABS*	00000000 sbrkr.c
00000000 l    df *ABS*	00000000 stdio.c
00000000 l    df *ABS*	00000000 strcmp.c
00000000 l    df *ABS*	00000000 vfprintf.c
0801b3ec l     O .rodata	00000010 zeroes.4333
0801b3fc l     O .rodata	00000010 blanks.4332
00000000 l    df *ABS*	00000000 vfprintf.c
08010d84 l     F .text	000000fc __sprint_r.part.0
0801b40c l     O .rodata	00000010 zeroes.4349
080123c0 l     F .text	000000bc __sbprintf
0801b41c l     O .rodata	00000010 blanks.4348
00000000 l    df *ABS*	00000000 wbuf.c
00000000 l    df *ABS*	00000000 writer.c
00000000 l    df *ABS*	00000000 closer.c
00000000 l    df *ABS*	00000000 mallocr.c
00000000 l    df *ABS*	00000000 fclose.c
00000000 l    df *ABS*	00000000 fputwc.c
00000000 l    df *ABS*	00000000 fstatr.c
00000000 l    df *ABS*	00000000 int_errno.c
00000000 l    df *ABS*	00000000 isattyr.c
00000000 l    df *ABS*	00000000 lseekr.c
00000000 l    df *ABS*	00000000 readr.c
00000000 l    df *ABS*	00000000 wcrtomb.c
00000000 l    df *ABS*	00000000 wctomb_r.c
00000000 l    df *ABS*	00000000 libgcc2.c
00000000 l    df *ABS*	00000000 libgcc2.c
00000000 l    df *ABS*	00000000 libgcc2.c
00000000 l    df *ABS*	00000000 adddf3.c
00000000 l    df *ABS*	00000000 divdf3.c
00000000 l    df *ABS*	00000000 eqdf2.c
00000000 l    df *ABS*	00000000 gedf2.c
00000000 l    df *ABS*	00000000 ledf2.c
00000000 l    df *ABS*	00000000 muldf3.c
00000000 l    df *ABS*	00000000 subdf3.c
00000000 l    df *ABS*	00000000 fixdfsi.c
00000000 l    df *ABS*	00000000 floatsidf.c
00000000 l    df *ABS*	00000000 floatunsidf.c
00000000 l    df *ABS*	00000000 libgcc2.c
00000000 l    df *ABS*	00000000 libgcc2.c
00000000 l    df *ABS*	00000000 alt_close.c
08016338 l     F .text	0000003c alt_get_errno
00000000 l    df *ABS*	00000000 alt_dev.c
0801644c l     F .text	0000002c alt_dev_null_write
00000000 l    df *ABS*	00000000 alt_errno.c
00000000 l    df *ABS*	00000000 alt_fstat.c
08016478 l     F .text	0000003c alt_get_errno
00000000 l    df *ABS*	00000000 alt_isatty.c
0801656c l     F .text	0000003c alt_get_errno
00000000 l    df *ABS*	00000000 alt_load.c
08016654 l     F .text	00000068 alt_load_section
00000000 l    df *ABS*	00000000 alt_lseek.c
08016740 l     F .text	0000003c alt_get_errno
00000000 l    df *ABS*	00000000 alt_main.c
00000000 l    df *ABS*	00000000 alt_malloc_lock.c
00000000 l    df *ABS*	00000000 alt_printf.c
00000000 l    df *ABS*	00000000 alt_putchar.c
00000000 l    df *ABS*	00000000 alt_read.c
08016b84 l     F .text	0000003c alt_get_errno
00000000 l    df *ABS*	00000000 alt_release_fd.c
00000000 l    df *ABS*	00000000 alt_sbrk.c
0801d588 l     O .rwdata	00000004 heap_end
00000000 l    df *ABS*	00000000 alt_tick.c
00000000 l    df *ABS*	00000000 alt_usleep.c
00000000 l    df *ABS*	00000000 alt_write.c
08016fcc l     F .text	0000003c alt_get_errno
00000000 l    df *ABS*	00000000 alt_sys_init.c
08017108 l     F .text	00000034 alt_dev_reg
0801c4a0 l     O .rwdata	00000038 i2c_0
0801c4d8 l     O .rwdata	00001060 jtag_uart_0
00000000 l    df *ABS*	00000000 altera_avalon_i2c.c
080171e4 l     F .text	00000110 optional_irq_callback
08017344 l     F .text	0000009c alt_avalon_i2c_irq
00000000 l    df *ABS*	00000000 altera_avalon_jtag_uart_fd.c
00000000 l    df *ABS*	00000000 altera_avalon_jtag_uart_init.c
08019020 l     F .text	0000020c altera_avalon_jtag_uart_irq
0801922c l     F .text	000000a0 altera_avalon_jtag_uart_timeout
00000000 l    df *ABS*	00000000 altera_avalon_jtag_uart_ioctl.c
00000000 l    df *ABS*	00000000 altera_avalon_jtag_uart_read.c
00000000 l    df *ABS*	00000000 altera_avalon_jtag_uart_write.c
00000000 l    df *ABS*	00000000 altera_avalon_spi.c
00000000 l    df *ABS*	00000000 altera_avalon_timer_sc.c
08019a60 l     F .text	00000078 alt_avalon_timer_sc_irq
00000000 l    df *ABS*	00000000 alt_alarm_start.c
00000000 l    df *ABS*	00000000 alt_busy_sleep.c
00000000 l    df *ABS*	00000000 alt_dcache_flush_all.c
00000000 l    df *ABS*	00000000 alt_dev_llist_insert.c
08019df8 l     F .text	0000003c alt_get_errno
00000000 l    df *ABS*	00000000 alt_do_ctors.c
00000000 l    df *ABS*	00000000 alt_do_dtors.c
00000000 l    df *ABS*	00000000 alt_find_dev.c
00000000 l    df *ABS*	00000000 alt_icache_flush_all.c
00000000 l    df *ABS*	00000000 alt_iic.c
00000000 l    df *ABS*	00000000 alt_iic_isr_register.c
00000000 l    df *ABS*	00000000 alt_io_redirect.c
0801a2e8 l     F .text	000000e4 alt_open_fd
00000000 l    df *ABS*	00000000 alt_irq_vars.c
00000000 l    df *ABS*	00000000 alt_open.c
0801a448 l     F .text	0000003c alt_get_errno
0801a484 l     F .text	000000ec alt_file_locked
00000000 l    df *ABS*	00000000 altera_nios2_gen2_irq.c
00000000 l    df *ABS*	00000000 alt_find_file.c
00000000 l    df *ABS*	00000000 alt_get_fd.c
00000000 l    df *ABS*	00000000 atexit.c
00000000 l    df *ABS*	00000000 exit.c
00000000 l    df *ABS*	00000000 memcmp.c
00000000 l    df *ABS*	00000000 __atexit.c
00000000 l    df *ABS*	00000000 __call_atexit.c
00000000 l    df *ABS*	00000000 alt_exit.c
0801f620 g     O .bss	00000004 alt_instruction_exception_handler
08005b90 g     F .text	00000018 putchar
0800ecf0 g     F .text	00000074 _mprec_log10
0800eddc g     F .text	0000008c __any_on
08012acc g     F .text	00000054 _isatty_r
0801b2d4 g     O .rodata	00000028 __mprec_tinytens
08016858 g     F .text	0000007c alt_main
0801d54c g     O .rwdata	00000008 ctrl_xfers
08005ba8 g     F .text	000000c0 _puts_r
0801f7bc g     O .bss	00000100 alt_irq
08012b20 g     F .text	00000060 _lseek_r
08004fac g     F .text	00000644 USB_Task
0801d5a0 g       *ABS*	00000000 __flash_rwdata_start
08014d10 g     F .text	00000088 .hidden __eqdf2
0801f8bc g       *ABS*	00000000 __alt_heap_start
08005b4c g     F .text	0000003c printf
08012be0 g     F .text	0000009c _wcrtomb_r
0800414c g     F .text	00000088 kbdPoll
0800f6d4 g     F .text	0000005c __sseek
0800c4d0 g     F .text	00000010 __sinit
0801247c g     F .text	00000140 __swbuf_r
0800cfa4 g     F .text	0000007c _setlocale_r
0800c328 g     F .text	00000078 __sfmoreglue
08017a3c g     F .text	000000a8 alt_avalon_i2c_rx_read
080168f8 g     F .text	00000024 __malloc_unlock
080036c8 g     F .text	000001ac textVGAColorScreenSaver
0800251c g     F .text	000001f0 GetDriverandReport
08018c54 g     F .text	00000044 alt_avalon_i2c_enabled_ints_get
080177c0 g     F .text	00000094 alt_avalon_i2c_master_config_speed_get
0800db2c g     F .text	0000015c memmove
0800c4b8 g     F .text	00000018 _cleanup
080184a4 g     F .text	0000020c alt_avalon_i2c_master_transmit_using_interrupts
0800ddb0 g     F .text	000000a8 _Balloc
080042a0 g     F .text	0000008c MAXreg_wr
0801ba24 g     O .rwdata	00000030 ClientDriverTable
08014d98 g     F .text	000000dc .hidden __gtdf2
0801a6cc g     F .text	00000024 altera_nios2_gen2_irq_init
080055f0 g     F .text	0000002c MSDProbe
08000000 g     F .entry	0000000c __reset
08004aac g     F .text	000000e8 XferCtrlData
08000020 g       *ABS*	00000000 __flash_exceptions_start
0801f624 g     O .bss	00000010 hid_ep
08012a70 g     F .text	0000005c _fstat_r
0801f604 g     O .bss	00000004 errno
0800f650 g     F .text	00000008 __seofread
0800f9e4 g     F .text	000013a0 ___svfiprintf_internal_r
0801f60c g     O .bss	00000004 alt_argv
08025538 g       *ABS*	00000000 _gp
08016f9c g     F .text	00000030 usleep
08018c98 g     F .text	0000004c alt_avalon_i2c_rx_fifo_threshold_get
08004410 g     F .text	00000078 MAXreg_rd
0800329c g     F .text	00000050 textVGAColorClr
080003f4 g     F .text	00000474 show_menu
08017950 g     F .text	00000044 alt_avalon_i2c_is_busy
0801c320 g     O .rwdata	00000180 alt_fd_list
08004084 g     F .text	00000040 HID_init
08005b88 g     F .text	00000008 _putchar_r
080176f4 g     F .text	000000cc alt_avalon_i2c_master_config_set
08019f98 g     F .text	00000090 alt_find_dev
080059d4 g     F .text	00000148 memcpy
0800c178 g     F .text	0000000c _cleanup_r
08016150 g     F .text	000000dc .hidden __floatsidf
0801a3cc g     F .text	0000007c alt_io_redirect
08014e74 g     F .text	000000f4 .hidden __ltdf2
0801acec g       *ABS*	00000000 __DTOR_END__
080182e4 g     F .text	000001c0 alt_avalon_i2c_master_transmit
08005c68 g     F .text	00000014 puts
0801a8bc g     F .text	0000009c alt_exception_cause_generated_bad_addr
0800f534 g     F .text	00000074 __fpclassifyd
0800ec4c g     F .text	000000a4 __ratio
080123a4 g     F .text	0000001c __vfiprintf_internal
08019424 g     F .text	0000021c altera_avalon_jtag_uart_read
08005b1c g     F .text	00000030 _printf_r
00000000 g       *ABS*	00000000 __alt_mem_onchip_memory2_0
080058f0 g     F .text	00000064 .hidden __udivsi3
080165a8 g     F .text	000000ac isatty
0801b324 g     O .rodata	000000c8 __mprec_tens
0800d020 g     F .text	0000000c __locale_charset
08017560 g     F .text	00000098 alt_avalon_i2c_enable
0801f600 g     O .bss	00000004 __malloc_top_pad
08018b88 g     F .text	00000068 alt_avalon_i2c_int_disable
0801d554 g     O .rwdata	00000001 usb_task_state
0801d560 g     O .rwdata	00000004 __mb_cur_max
0800d050 g     F .text	0000000c _localeconv_r
0800e1e4 g     F .text	0000003c __i2b
0800c954 g     F .text	000004c8 __sfvwrite_r
0800f5a8 g     F .text	00000054 _sbrk_r
08012b80 g     F .text	00000060 _read_r
08004768 g     F .text	00000094 MAX3421E_init
0800270c g     F .text	00000034 setKeycode
08003148 g     F .text	000000b4 SGTL5000_Reg_Rd
0801d580 g     O .rwdata	00000004 alt_max_fd
08012764 g     F .text	000000f0 _fclose_r
0800c140 g     F .text	00000030 fflush
0801f5fc g     O .bss	00000004 __malloc_max_sbrked_mem
080186b0 g     F .text	00000210 alt_avalon_i2c_master_receive
08013a94 g     F .text	000008ac .hidden __adddf3
0800e9f4 g     F .text	0000010c __b2d
080134d0 g     F .text	000005c4 .hidden __umoddi3
0801677c g     F .text	000000dc lseek
08018bf0 g     F .text	00000064 alt_avalon_i2c_int_enable
0801d558 g     O .rwdata	00000004 _global_impure_ptr
0800efd0 g     F .text	00000564 _realloc_r
0801f8bc g       *ABS*	00000000 __bss_end
0801a1f8 g     F .text	000000f0 alt_iic_isr_register
08016e94 g     F .text	00000108 alt_tick
08012ed4 g     F .text	000005fc .hidden __udivdi3
08018ab0 g     F .text	00000058 alt_avalon_i2c_int_status_get
080129cc g     F .text	00000024 _fputwc_r
0801b2fc g     O .rodata	00000028 __mprec_bigtens
0800dfc8 g     F .text	00000104 __s2b
0801622c g     F .text	000000a8 .hidden __floatunsidf
0800e734 g     F .text	00000060 __mcmp
0800c4f0 g     F .text	00000018 __fp_lock_all
0801a1ac g     F .text	0000004c alt_ic_irq_enabled
08016df8 g     F .text	0000009c alt_alarm_stop
080173e0 g     F .text	00000054 alt_avalon_i2c_register_callback
0801f61c g     O .bss	00000004 alt_irq_active
08017434 g     F .text	000000ec alt_avalon_i2c_init
080056b8 g     F .text	0000002c DummyProbe
080000fc g     F .exceptions	000000d4 alt_irq_handler
0801c2f8 g     O .rwdata	00000028 alt_dev_null
080040c4 g     F .text	00000088 mousePoll
080045bc g     F .text	00000024 Vbus_power
08019dd8 g     F .text	00000020 alt_dcache_flush_all
0800e0cc g     F .text	00000068 __hi0bits
080160d0 g     F .text	00000080 .hidden __fixdfsi
0801d5a0 g       *ABS*	00000000 __ram_rwdata_end
0801d578 g     O .rwdata	00000008 alt_dev_list
08017008 g     F .text	00000100 write
0800ee68 g     F .text	000000a0 _putc_r
08017d70 g     F .text	0000004c alt_avalon_i2c_check_arblost
08018b4c g     F .text	0000003c alt_avalon_i2c_int_clear
0801b58c g       *ABS*	00000000 __ram_rodata_end
0801f5e9 g     O .bss	00000001 usb_error
080164b4 g     F .text	000000b8 fstat
08014e74 g     F .text	000000f4 .hidden __ledf2
0801d594 g     O .rwdata	00000008 alt_avalon_i2c_list
0800e4ac g     F .text	00000140 __pow5mult
08010e98 g     F .text	0000150c ___vfiprintf_internal_r
0801f5f4 g     O .bss	00000004 __nlocale_changed
08005954 g     F .text	00000058 .hidden __umodsi3
0801f8bc g       *ABS*	00000000 end
08018f60 g     F .text	000000c0 altera_avalon_jtag_uart_init
080001d0 g     F .exceptions	00000060 alt_instruction_exception_entry
08017520 g     F .text	00000040 alt_avalon_i2c_open
08004c08 g     F .text	0000017c XferDispatchPkt
0801acec g       *ABS*	00000000 __CTOR_LIST__
0c000000 g       *ABS*	00000000 __alt_stack_pointer
08017ef8 g     F .text	000000e8 alt_avalon_i2c_master_tx
08019ad8 g     F .text	0000007c alt_avalon_timer_sc_init
080162d4 g     F .text	00000064 .hidden __clzsi2
08019640 g     F .text	00000224 altera_avalon_jtag_uart_write
080035c8 g     F .text	00000100 text_VGA_init
0800c4e0 g     F .text	00000004 __sfp_lock_acquire
0800da48 g     F .text	000000e4 memchr
08008110 g     F .text	000022dc ___vfprintf_internal_r
0800492c g     F .text	00000034 MaxGpxHandler
08005cf8 g     F .text	00000058 _sprintf_r
0800c644 g     F .text	00000310 _free_r
0801691c g     F .text	0000022c alt_printf
0800d02c g     F .text	00000010 __locale_mb_cur_max
0801ab38 g     F .text	00000180 __call_exitprocs
0801f5f0 g     O .bss	00000004 __mlocale_changed
080172f4 g     F .text	00000050 alt_avalon_i2c_register_optional_irq_handler
0801d564 g     O .rwdata	00000004 __malloc_sbrk_base
08000230 g     F .text	0000003c _start
0801f614 g     O .bss	00000004 _alt_tick_rate
08004488 g     F .text	00000094 MAXbytes_rd
080188c0 g     F .text	000001f0 alt_avalon_i2c_master_receive_using_interrupts
08005c94 g     F .text	00000064 rand
08018ce4 g     F .text	00000064 alt_avalon_i2c_rx_fifo_threshold_set
0800e5ec g     F .text	00000148 __lshift
08019864 g     F .text	000001fc alt_avalon_spi_command
0801f618 g     O .bss	00000004 _alt_nticks
08016bc0 g     F .text	00000104 read
08017174 g     F .text	00000070 alt_sys_init
0800f814 g     F .text	000001d0 __ssprint_r
0801f774 g     O .bss	00000048 devtable
0801aa20 g     F .text	00000118 __register_exitproc
08003c7c g     F .text	00000408 HIDKProbe
0801f634 g     O .bss	00000018 msd_ep
0801811c g     F .text	000001c8 alt_avalon_i2c_master_tx_rx
0800e220 g     F .text	0000028c __multiply
080192cc g     F .text	00000068 altera_avalon_jtag_uart_close
08004f14 g     F .text	00000098 USB_init
0801f674 g     O .bss	00000100 bigbuf
080059ac g     F .text	00000028 .hidden __mulsi3
0801b58c g       *ABS*	00000000 __ram_rwdata_start
0801acec g       *ABS*	00000000 __ram_rodata_start
0801f64c g     O .bss	00000028 __malloc_current_mallinfo
0801f5e0 g     O .bss	00000001 last_usb_task_state
0800eb00 g     F .text	0000014c __d2b
0801f5d8 g     O .bss	00000008 dev0ep
08002eb0 g     F .text	00000048 clearLED
08018dfc g     F .text	00000060 altera_avalon_jtag_uart_read_fd
0801a7f8 g     F .text	000000c4 alt_get_fd
08019c80 g     F .text	00000158 alt_busy_sleep
0800561c g     F .text	00000038 MSDEventHandler
08012634 g     F .text	00000054 _close_r
0801a9a4 g     F .text	0000007c memcmp
08017994 g     F .text	000000a8 alt_avalon_i2c_rx_read_available
08018ebc g     F .text	00000050 altera_avalon_jtag_uart_close_fd
0801f8bc g       *ABS*	00000000 __alt_stack_base
08018f0c g     F .text	00000054 altera_avalon_jtag_uart_ioctl_fd
0800a4c4 g     F .text	00000154 __swsetup_r
08014340 g     F .text	000009d0 .hidden __divdf3
0800c3a0 g     F .text	00000118 __sfp
0800ed64 g     F .text	00000078 __copybits
0801bef0 g     O .rwdata	00000408 __malloc_av_
0800c4ec g     F .text	00000004 __sinit_lock_release
08005680 g     F .text	00000038 CDCEventHandler
08014f68 g     F .text	0000086c .hidden __muldf3
080056e4 g     F .text	00000038 DummyEventHandler
0800f5fc g     F .text	00000054 __sread
0801a6f0 g     F .text	00000108 alt_find_file
08019e34 g     F .text	000000a4 alt_dev_llist_insert
080168d4 g     F .text	00000024 __malloc_lock
08016d48 g     F .text	000000b0 sbrk
08005e54 g     F .text	000022bc ___svfprintf_internal_r
08017dbc g     F .text	0000013c alt_avalon_i2c_interrupt_transaction_status
08017d24 g     F .text	0000004c alt_avalon_i2c_check_nack
0800c0e4 g     F .text	0000005c _fflush_r
08012688 g     F .text	000000dc _calloc_r
0801f5b4 g       *ABS*	00000000 __bss_start
080045e0 g     F .text	00000188 MAX_busprobe
0801f5d5 g     O .bss	00000002 hid_device
0800dc88 g     F .text	00000128 memset
0800149c g     F .text	00000594 draw_score_panel
08002a68 g     F .text	00000404 main
080047fc g     F .text	00000064 MAX3421E_Task
08017cf0 g     F .text	00000034 alt_avalon_i2c_master_target_set
0801f610 g     O .bss	00000004 alt_envp
0801f5f8 g     O .bss	00000004 __malloc_max_total_mem
08018e5c g     F .text	00000060 altera_avalon_jtag_uart_write_fd
08000dec g     F .text	000005a4 draw_wall
080125bc g     F .text	00000018 __swbuf
08005c7c g     F .text	00000018 srand
08005774 g     F .text	00000084 ConvUTF8ToStr
08018b08 g     F .text	00000044 alt_avalon_i2c_int_raw_status_get
0800f730 g     F .text	00000008 __sclose
0c000000 g       *ABS*	00000000 __alt_heap_limit
08012854 g     F .text	00000014 fclose
0800a840 g     F .text	00001688 _dtoa_r
0800d23c g     F .text	0000080c _malloc_r
08012d3c g     F .text	00000030 __ascii_wctomb
0801d584 g     O .rwdata	00000004 alt_errno
0800351c g     F .text	000000ac mem_test
0800ce1c g     F .text	000000c4 _fwalk
0800ef08 g     F .text	000000c8 putc
080057f8 g     F .text	00000084 .hidden __divsi3
08004d84 g     F .text	00000190 XferInTransfer
080033fc g     F .text	000000f0 setColorPalette
08003010 g     F .text	00000138 printSignedHex1
0800c520 g     F .text	00000124 _malloc_trim_r
0801acec g       *ABS*	00000000 __CTOR_END__
0800573c g     F .text	00000038 GetDevtable
0800f738 g     F .text	000000dc strcmp
0801acec g       *ABS*	00000000 __flash_rodata_start
0801acec g       *ABS*	00000000 __DTOR_LIST__
0800217c g     F .text	000003a0 check_gears
08004b94 g     F .text	00000074 XferCtrlND
080031fc g     F .text	000000a0 SGTL5000_Reg_Wr
08014d10 g     F .text	00000088 .hidden __nedf2
0800451c g     F .text	000000a0 MAX3421E_reset
0801713c g     F .text	00000038 alt_irq_init
08016cc4 g     F .text	00000084 alt_release_fd
08005d50 g     F .text	0000006c sprintf
0801b42c g     O .rodata	00000100 .hidden __clz_tab
0801f5ec g     O .bss	00000004 _PathLocale
0801a958 g     F .text	00000014 atexit
080125d4 g     F .text	00000060 _write_r
0800d05c g     F .text	00000018 setlocale
080002e4 g     F .text	00000110 game_init
0801d55c g     O .rwdata	00000004 _impure_ptr
0801f608 g     O .bss	00000004 alt_argc
0800bec8 g     F .text	0000021c __sflush_r
08019f38 g     F .text	00000060 _do_dtors
0800d048 g     F .text	00000008 __locale_cjk_lang
08017cb8 g     F .text	00000038 alt_avalon_i2c_master_target_get
08017bc8 g     F .text	000000f0 alt_avalon_i2c_send_address
0800432c g     F .text	000000e4 MAXbytes_wr
08000020 g       .exceptions	00000000 alt_irq_entry
0800e990 g     F .text	00000064 __ulp
0800c508 g     F .text	00000018 __fp_unlock_all
0801d570 g     O .rwdata	00000008 alt_fs_list
08005654 g     F .text	0000002c CDCProbe
08000020 g       *ABS*	00000000 __ram_exceptions_start
0800d074 g     F .text	0000000c localeconv
08002e6c g     F .text	00000044 setLED
0800571c g     F .text	00000020 GetUsbTaskState
08018d94 g     F .text	00000068 alt_avalon_i2c_tfr_cmd_fifo_threshold_set
0801a048 g     F .text	00000050 alt_ic_isr_register
080175f8 g     F .text	0000004c alt_avalon_i2c_disable
0801af58 g     O .rodata	00000010 devclasses
0801d5a0 g       *ABS*	00000000 _edata
0800420c g     F .text	00000038 HIDKEventHandler
0801f8bc g       *ABS*	00000000 _end
08004860 g     F .text	000000cc MaxIntHandler
08012868 g     F .text	00000164 __fputwc
08000230 g       *ABS*	00000000 __ram_exceptions_end
08019334 g     F .text	000000f0 altera_avalon_jtag_uart_ioctl
080032ec g     F .text	00000110 textVGADrawColorText
08017644 g     F .text	000000b0 alt_avalon_i2c_master_config_get
08004244 g     F .text	00000034 SPI_init
0801a120 g     F .text	0000008c alt_ic_irq_disable
0800f658 g     F .text	0000007c __swrite
0801d568 g     O .rwdata	00000004 __malloc_trim_threshold
0800d03c g     F .text	0000000c __locale_msgcharset
08002740 g     F .text	00000328 transfer_code
0801a96c g     F .text	00000038 exit
0800cee0 g     F .text	000000c4 _fwalk_reent
0800e794 g     F .text	000001fc __mdiff
08000868 g     F .text	000001e8 draw_status_bars
0800587c g     F .text	00000074 .hidden __modsi3
0c000000 g       *ABS*	00000000 __alt_data_end
08000020 g     F .exceptions	00000000 alt_exception
0800c4e4 g     F .text	00000004 __sfp_lock_release
08000000 g       *ABS*	00000000 __alt_mem_sdram
08017854 g     F .text	000000fc alt_avalon_i2c_master_config_speed_set
08017ae4 g     F .text	000000e4 alt_avalon_i2c_cmd_write
080041d4 g     F .text	00000038 HIDMEventHandler
0801acb8 g     F .text	00000034 _exit
08019b54 g     F .text	0000012c alt_alarm_start
08002ef8 g     F .text	00000118 printSignedHex0
08012dc8 g     F .text	0000010c .hidden __muldi3
0800d080 g     F .text	000001bc __smakebuf_r
08005dbc g     F .text	00000098 strlen
0801a570 g     F .text	0000015c open
080034ec g     F .text	00000030 ramsetctl
08014d98 g     F .text	000000dc .hidden __gedf2
08016b48 g     F .text	0000003c alt_putchar
0801d56c g     O .rwdata	00000004 __wctomb
08010e80 g     F .text	00000018 __sprint_r
0801a028 g     F .text	00000020 alt_icache_flush_all
0801d59c g     O .rwdata	00000004 alt_priority_mask
0801a098 g     F .text	00000088 alt_ic_irq_enable
0800a3ec g     F .text	0000001c __vfprintf_internal
08003874 g     F .text	00000408 HIDMProbe
08012d6c g     F .text	0000005c _wctomb_r
08004278 g     F .text	00000028 SPI_wr
080157d4 g     F .text	000008fc .hidden __subdf3
0800e134 g     F .text	000000b0 __lo0bits
0801d58c g     O .rwdata	00000008 alt_alarm_list
08019ed8 g     F .text	00000060 _do_ctors
08012c7c g     F .text	000000c0 wcrtomb
08016374 g     F .text	000000d8 close
08018d48 g     F .text	0000004c alt_avalon_i2c_tfr_cmd_fifo_threshold_get
080166bc g     F .text	00000084 alt_load
08017fe0 g     F .text	0000013c alt_avalon_i2c_master_rx
080129f0 g     F .text	00000080 fputwc
0800c4e8 g     F .text	00000004 __sinit_lock_acquire
08004960 g     F .text	0000014c XferCtrlReq
0800de80 g     F .text	00000148 __multadd
0800de58 g     F .text	00000028 _Bfree
08001a30 g     F .text	00000404 menu_control



Disassembly of section .entry:

08000000 <__reset>:
 * Jump to the _start entry point in the .text section if reset code
 * is allowed or if optimizing for RTL simulation.
 */
#if defined(ALT_ALLOW_CODE_AT_RESET) || defined(ALT_SIM_OPTIMIZE)
    /* Jump to the _start entry point in the .text section. */
    movhi r1, %hi(_start)
 8000000:	00420034 	movhi	at,2048
    ori r1, r1, %lo(_start)
 8000004:	08408c14 	ori	at,at,560
    jmp r1
 8000008:	0800683a 	jmp	at
	...

Disassembly of section .exceptions:

08000020 <alt_exception>:

#else /* ALT_EXCEPTION_STACK disabled */
        /* 
         * Reserve space on normal stack for registers about to be pushed.
         */
        addi  sp, sp, -76
 8000020:	deffed04 	addi	sp,sp,-76
         * documentation for details).
         *
         * Leave a gap in the stack frame at 4(sp) for the muldiv handler to
         * store zero into.
         */
        stw   ra,  0(sp)
 8000024:	dfc00015 	stw	ra,0(sp)
        stw   r1,   8(sp)
 8000028:	d8400215 	stw	at,8(sp)
        stw   r2,  12(sp)
 800002c:	d8800315 	stw	r2,12(sp)
        stw   r3,  16(sp)
 8000030:	d8c00415 	stw	r3,16(sp)
        stw   r4,  20(sp)
 8000034:	d9000515 	stw	r4,20(sp)
        stw   r5,  24(sp)
 8000038:	d9400615 	stw	r5,24(sp)
        stw   r6,  28(sp)
 800003c:	d9800715 	stw	r6,28(sp)
        stw   r7,  32(sp)
 8000040:	d9c00815 	stw	r7,32(sp)
        rdctl r5, estatus   /* Read early to avoid usage stall */
 8000044:	000b307a 	rdctl	r5,estatus
        stw   r8,  36(sp)
 8000048:	da000915 	stw	r8,36(sp)
        stw   r9,  40(sp)
 800004c:	da400a15 	stw	r9,40(sp)
        stw   r10, 44(sp)
 8000050:	da800b15 	stw	r10,44(sp)
        stw   r11, 48(sp)
 8000054:	dac00c15 	stw	r11,48(sp)
        stw   r12, 52(sp)
 8000058:	db000d15 	stw	r12,52(sp)
        stw   r13, 56(sp)
 800005c:	db400e15 	stw	r13,56(sp)
        stw   r14, 60(sp)
 8000060:	db800f15 	stw	r14,60(sp)
        stw   r15, 64(sp)
 8000064:	dbc01015 	stw	r15,64(sp)
        /*
         * ea-4 contains the address of the instruction being executed
         * when the exception occured. For interrupt exceptions, we will
         * will be re-issue the isntruction. Store it in 72(sp)
         */
        stw   r5,  68(sp)  /* estatus */
 8000068:	d9401115 	stw	r5,68(sp)
        addi  r15, ea, -4  /* instruction that caused exception */
 800006c:	ebffff04 	addi	r15,ea,-4
        stw   r15,  72(sp)
 8000070:	dbc01215 	stw	r15,72(sp)
#else
        /*
         * Test to see if the exception was a software exception or caused 
         * by an external interrupt, and vector accordingly.
         */
        rdctl r4, ipending
 8000074:	0009313a 	rdctl	r4,ipending
        andi  r2, r5, 1
 8000078:	2880004c 	andi	r2,r5,1
        beq   r2, zero, .Lnot_irq
 800007c:	10000326 	beq	r2,zero,800008c <alt_exception+0x6c>
        beq   r4, zero, .Lnot_irq
 8000080:	20000226 	beq	r4,zero,800008c <alt_exception+0x6c>
        /*
         * Now that all necessary registers have been preserved, call 
         * alt_irq_handler() to process the interrupts.
         */

        call alt_irq_handler
 8000084:	80000fc0 	call	80000fc <alt_irq_handler>

        .section .exceptions.irqreturn, "xa"

        br    .Lexception_exit
 8000088:	00000706 	br	80000a8 <alt_exception+0x88>
         * upon completion, so we write ea (address of instruction *after*
         * the one where the exception occured) into 72(sp). The actual
         * instruction that caused the exception is written in r2, which these
         * handlers will utilize.
         */
        stw ea, 72(sp) /* EA is PC+4 so will skip over instruction causing exception */
 800008c:	df401215 	stw	ea,72(sp)
.Lunknown_16bit:
        addi.n r4, r4, 2 /* Need PC+2 to skip over instruction causing exception */
        stw r4, 72(sp)

#else /* CDX is not Enabled and all instructions are 32bits */
        ldw r2, -4(ea) /* Instruction value that caused exception */
 8000090:	e8bfff17 	ldw	r2,-4(ea)
         * debugger is present) or go into an infinite loop since the
         * handling behavior is undefined; in that case we will not return here.
         */

        /* Load exception-causing address as first argument (r4) */
        addi   r4, ea, -4
 8000094:	e93fff04 	addi	r4,ea,-4

        /* Call the instruction-exception entry */
        call   alt_instruction_exception_entry
 8000098:	80001d00 	call	80001d0 <alt_instruction_exception_entry>
         * instruction
         *
         * Return code was 0: Skip. The instruction after the exception is
         * already stored in 72(sp).
         */
        bne   r2, r0, .Lexception_exit
 800009c:	1000021e 	bne	r2,zero,80000a8 <alt_exception+0x88>

        /*
         * Otherwise, modify 72(sp) to re-issue the instruction that caused the
         * exception.
         */
        addi  r15, ea, -4  /* instruction that caused exception */
 80000a0:	ebffff04 	addi	r15,ea,-4
        stw   r15,  72(sp)
 80000a4:	dbc01215 	stw	r15,72(sp)
        /* 
         * Restore the saved registers, so that all general purpose registers 
         * have been restored to their state at the time the interrupt occured.
         */

        ldw   r5,  68(sp)
 80000a8:	d9401117 	ldw	r5,68(sp)
        ldw   ea,  72(sp)  /* This becomes the PC once eret is executed */
 80000ac:	df401217 	ldw	ea,72(sp)
        ldw   ra,   0(sp)
 80000b0:	dfc00017 	ldw	ra,0(sp)

        wrctl estatus, r5
 80000b4:	2801707a 	wrctl	estatus,r5

        ldw   r1,   8(sp)
 80000b8:	d8400217 	ldw	at,8(sp)
        ldw   r2,  12(sp)
 80000bc:	d8800317 	ldw	r2,12(sp)
        ldw   r3,  16(sp)
 80000c0:	d8c00417 	ldw	r3,16(sp)
        ldw   r4,  20(sp)
 80000c4:	d9000517 	ldw	r4,20(sp)
        ldw   r5,  24(sp)
 80000c8:	d9400617 	ldw	r5,24(sp)
        ldw   r6,  28(sp)
 80000cc:	d9800717 	ldw	r6,28(sp)
        ldw   r7,  32(sp)
 80000d0:	d9c00817 	ldw	r7,32(sp)

#if defined(ALT_EXCEPTION_STACK) && defined(ALT_STACK_CHECK)
        ldw   et, %gprel(alt_exception_old_stack_limit)(gp)
#endif

        ldw   r8,  36(sp)
 80000d4:	da000917 	ldw	r8,36(sp)
        ldw   r9,  40(sp)
 80000d8:	da400a17 	ldw	r9,40(sp)
        ldw   r10, 44(sp)
 80000dc:	da800b17 	ldw	r10,44(sp)
        ldw   r11, 48(sp)
 80000e0:	dac00c17 	ldw	r11,48(sp)
        ldw   r12, 52(sp)
 80000e4:	db000d17 	ldw	r12,52(sp)
        ldw   r13, 56(sp)
 80000e8:	db400e17 	ldw	r13,56(sp)
        ldw   r14, 60(sp)
 80000ec:	db800f17 	ldw	r14,60(sp)
        ldw   r15, 64(sp)
 80000f0:	dbc01017 	ldw	r15,64(sp)
        stw   et, %gprel(alt_stack_limit_value)(gp)
        stw   zero, %gprel(alt_exception_old_stack_limit)(gp)
#endif /* ALT_STACK_CHECK */
        ldw   sp,  76(sp)
#else /* ALT_EXCEPTION_STACK disabled */
        addi  sp, sp, 76
 80000f4:	dec01304 	addi	sp,sp,76

        /*
         * Return to the interrupted instruction.
         */

        eret
 80000f8:	ef80083a 	eret

080000fc <alt_irq_handler>:
 * instruction is present if the macro ALT_CI_INTERRUPT_VECTOR defined.
 */

void alt_irq_handler (void) __attribute__ ((section (".exceptions")));
void alt_irq_handler (void)
{
 80000fc:	defff904 	addi	sp,sp,-28
 8000100:	dfc00615 	stw	ra,24(sp)
 8000104:	df000515 	stw	fp,20(sp)
 8000108:	df000504 	addi	fp,sp,20
  
  /*
   * Notify the operating system that we are at interrupt level.
   */ 
  
  ALT_OS_INT_ENTER();
 800010c:	0001883a 	nop
#ifndef NIOS2_EIC_PRESENT
static ALT_INLINE alt_u32 ALT_ALWAYS_INLINE alt_irq_pending (void)
{
  alt_u32 active;

  NIOS2_READ_IPENDING (active);
 8000110:	0005313a 	rdctl	r2,ipending
 8000114:	e0bffe15 	stw	r2,-8(fp)

  return active;
 8000118:	e0bffe17 	ldw	r2,-8(fp)
   * Consider the case where the high priority interupt is asserted during
   * the interrupt entry sequence for a lower priority interrupt to see why
   * this is the case.
   */

  active = alt_irq_pending ();
 800011c:	e0bffb15 	stw	r2,-20(fp)

  do
  {
    i = 0;
 8000120:	e03ffd15 	stw	zero,-12(fp)
    mask = 1;
 8000124:	00800044 	movi	r2,1
 8000128:	e0bffc15 	stw	r2,-16(fp)
     * called to clear the interrupt condition.
     */

    do
    {
      if (active & mask)
 800012c:	e0fffb17 	ldw	r3,-20(fp)
 8000130:	e0bffc17 	ldw	r2,-16(fp)
 8000134:	1884703a 	and	r2,r3,r2
 8000138:	10001426 	beq	r2,zero,800018c <alt_irq_handler+0x90>
      { 
#ifdef ALT_ENHANCED_INTERRUPT_API_PRESENT
        alt_irq[i].handler(alt_irq[i].context); 
 800013c:	008200b4 	movhi	r2,2050
 8000140:	10bdef04 	addi	r2,r2,-2116
 8000144:	e0fffd17 	ldw	r3,-12(fp)
 8000148:	180690fa 	slli	r3,r3,3
 800014c:	10c5883a 	add	r2,r2,r3
 8000150:	10c00017 	ldw	r3,0(r2)
 8000154:	008200b4 	movhi	r2,2050
 8000158:	10bdef04 	addi	r2,r2,-2116
 800015c:	e13ffd17 	ldw	r4,-12(fp)
 8000160:	200890fa 	slli	r4,r4,3
 8000164:	1105883a 	add	r2,r2,r4
 8000168:	10800104 	addi	r2,r2,4
 800016c:	10800017 	ldw	r2,0(r2)
 8000170:	1009883a 	mov	r4,r2
 8000174:	183ee83a 	callr	r3
#else
        alt_irq[i].handler(alt_irq[i].context, i); 
#endif
        break;
 8000178:	0001883a 	nop
#ifndef NIOS2_EIC_PRESENT
static ALT_INLINE alt_u32 ALT_ALWAYS_INLINE alt_irq_pending (void)
{
  alt_u32 active;

  NIOS2_READ_IPENDING (active);
 800017c:	0005313a 	rdctl	r2,ipending
 8000180:	e0bfff15 	stw	r2,-4(fp)

  return active;
 8000184:	e0bfff17 	ldw	r2,-4(fp)
 8000188:	00000706 	br	80001a8 <alt_irq_handler+0xac>
      }
      mask <<= 1;
 800018c:	e0bffc17 	ldw	r2,-16(fp)
 8000190:	1085883a 	add	r2,r2,r2
 8000194:	e0bffc15 	stw	r2,-16(fp)
      i++;
 8000198:	e0bffd17 	ldw	r2,-12(fp)
 800019c:	10800044 	addi	r2,r2,1
 80001a0:	e0bffd15 	stw	r2,-12(fp)

    } while (1);
 80001a4:	003fe106 	br	800012c <__alt_data_end+0xfc00012c>

    active = alt_irq_pending ();
 80001a8:	e0bffb15 	stw	r2,-20(fp)
    
  } while (active);
 80001ac:	e0bffb17 	ldw	r2,-20(fp)
 80001b0:	103fdb1e 	bne	r2,zero,8000120 <__alt_data_end+0xfc000120>

  /*
   * Notify the operating system that interrupt processing is complete.
   */ 

  ALT_OS_INT_EXIT();
 80001b4:	0001883a 	nop
}
 80001b8:	0001883a 	nop
 80001bc:	e037883a 	mov	sp,fp
 80001c0:	dfc00117 	ldw	ra,4(sp)
 80001c4:	df000017 	ldw	fp,0(sp)
 80001c8:	dec00204 	addi	sp,sp,8
 80001cc:	f800283a 	ret

080001d0 <alt_instruction_exception_entry>:
 * that handler if it has been registered. Absent a handler, it will
 * break break or hang as discussed below.
 */
int 
alt_instruction_exception_entry (alt_u32 exception_pc)
{
 80001d0:	defffb04 	addi	sp,sp,-20
 80001d4:	dfc00415 	stw	ra,16(sp)
 80001d8:	df000315 	stw	fp,12(sp)
 80001dc:	df000304 	addi	fp,sp,12
 80001e0:	e13fff15 	stw	r4,-4(fp)
  cause = ( (cause & NIOS2_EXCEPTION_REG_CAUSE_MASK) >>
              NIOS2_EXCEPTION_REG_CAUSE_OFST );

  NIOS2_READ_BADADDR(badaddr);
#else
  cause = NIOS2_EXCEPTION_CAUSE_NOT_PRESENT;
 80001e4:	00bfffc4 	movi	r2,-1
 80001e8:	e0bffd15 	stw	r2,-12(fp)
  badaddr = 0;
 80001ec:	e03ffe15 	stw	zero,-8(fp)
#endif /* NIOS2_HAS_EXTRA_EXCEPTION_INFO */

  if(alt_instruction_exception_handler) {
 80001f0:	d0a83a17 	ldw	r2,-24344(gp)
 80001f4:	10000726 	beq	r2,zero,8000214 <alt_instruction_exception_entry+0x44>
     * Call handler. Its return value indicates whether the exception-causing
     * instruction should be re-issued. The code that called us,
     * alt_eceptions_entry.S, will look at this value and adjust the ea
     * register as necessary
     */
    return alt_instruction_exception_handler(cause, exception_pc, badaddr);
 80001f8:	d0a83a17 	ldw	r2,-24344(gp)
 80001fc:	e0fffd17 	ldw	r3,-12(fp)
 8000200:	e1bffe17 	ldw	r6,-8(fp)
 8000204:	e17fff17 	ldw	r5,-4(fp)
 8000208:	1809883a 	mov	r4,r3
 800020c:	103ee83a 	callr	r2
 8000210:	00000206 	br	800021c <alt_instruction_exception_entry+0x4c>
   *    (a peripheral which negates its interrupt output before its
   *    interrupt handler has been executed will cause spurious interrupts)
   */
  else {
#ifdef NIOS2_HAS_DEBUG_STUB
    NIOS2_BREAK();
 8000214:	003da03a 	break	0
      ;
#endif /* NIOS2_HAS_DEBUG_STUB */
  }

  /* We should not get here. Remove compiler warning. */
  return NIOS2_EXCEPTION_RETURN_REISSUE_INST;
 8000218:	0005883a 	mov	r2,zero
}
 800021c:	e037883a 	mov	sp,fp
 8000220:	dfc00117 	ldw	ra,4(sp)
 8000224:	df000017 	ldw	fp,0(sp)
 8000228:	dec00204 	addi	sp,sp,8
 800022c:	f800283a 	ret

Disassembly of section .text:

08000230 <_start>:

    /*
     * Now that the caches are initialized, set up the stack pointer and global pointer.
     * The values provided by the linker are assumed to be correctly aligned.
     */
    movhi sp, %hi(__alt_stack_pointer)
 8000230:	06c30034 	movhi	sp,3072
    ori sp, sp, %lo(__alt_stack_pointer)
 8000234:	dec00014 	ori	sp,sp,0
    movhi gp, %hi(_gp)
 8000238:	068200b4 	movhi	gp,2050
    ori gp, gp, %lo(_gp)
 800023c:	d6954e14 	ori	gp,gp,21816
 */
#ifndef ALT_SIM_OPTIMIZE
    /* Log that the BSS is about to be cleared. */
    ALT_LOG_PUTS(alt_log_msg_bss)

    movhi r2, %hi(__bss_start)
 8000240:	00820074 	movhi	r2,2049
    ori r2, r2, %lo(__bss_start)
 8000244:	10bd6d14 	ori	r2,r2,62900

    movhi r3, %hi(__bss_end)
 8000248:	00c20074 	movhi	r3,2049
    ori r3, r3, %lo(__bss_end)
 800024c:	18fe2f14 	ori	r3,r3,63676

    beq r2, r3, 1f
 8000250:	10c00326 	beq	r2,r3,8000260 <_start+0x30>

0:
    stw zero, (r2)
 8000254:	10000015 	stw	zero,0(r2)
    addi r2, r2, 4
 8000258:	10800104 	addi	r2,r2,4
    bltu r2, r3, 0b
 800025c:	10fffd36 	bltu	r2,r3,8000254 <__alt_data_end+0xfc000254>
     * section aren't defined until alt_load() has been called).
     */
    mov   et, zero
#endif

    call alt_load
 8000260:	80166bc0 	call	80166bc <alt_load>

    /* Log that alt_main is about to be called. */
    ALT_LOG_PUTS(alt_log_msg_alt_main)

    /* Call the C entry point. It should never return. */
    call alt_main
 8000264:	80168580 	call	8016858 <alt_main>

08000268 <alt_after_alt_main>:

    /* Wait in infinite loop in case alt_main does return. */
alt_after_alt_main:
    br alt_after_alt_main
 8000268:	003fff06 	br	8000268 <__alt_data_end+0xfc000268>

0800026c <_check_overlap>:


static int cursor_pos = MENU_START_ROW_IND; // cursor position, 0 for start, 1 for map, 2 for settings

// check if two rectangles (32 * 32) intersect
static int _check_overlap(int x1, int y1, int x2, int y2) {
 800026c:	defffb04 	addi	sp,sp,-20
 8000270:	df000415 	stw	fp,16(sp)
 8000274:	df000404 	addi	fp,sp,16
 8000278:	e13ffc15 	stw	r4,-16(fp)
 800027c:	e17ffd15 	stw	r5,-12(fp)
 8000280:	e1bffe15 	stw	r6,-8(fp)
 8000284:	e1ffff15 	stw	r7,-4(fp)
    if (x1 > x2 + COMMON_UNIT || x2 > x1 + COMMON_UNIT || y1 > y2 + COMMON_UNIT || y2 > y1 + COMMON_UNIT) 
 8000288:	e0bffe17 	ldw	r2,-8(fp)
 800028c:	10c00804 	addi	r3,r2,32
 8000290:	e0bffc17 	ldw	r2,-16(fp)
 8000294:	18800c16 	blt	r3,r2,80002c8 <_check_overlap+0x5c>
 8000298:	e0bffc17 	ldw	r2,-16(fp)
 800029c:	10c00804 	addi	r3,r2,32
 80002a0:	e0bffe17 	ldw	r2,-8(fp)
 80002a4:	18800816 	blt	r3,r2,80002c8 <_check_overlap+0x5c>
 80002a8:	e0bfff17 	ldw	r2,-4(fp)
 80002ac:	10c00804 	addi	r3,r2,32
 80002b0:	e0bffd17 	ldw	r2,-12(fp)
 80002b4:	18800416 	blt	r3,r2,80002c8 <_check_overlap+0x5c>
 80002b8:	e0bffd17 	ldw	r2,-12(fp)
 80002bc:	10c00804 	addi	r3,r2,32
 80002c0:	e0bfff17 	ldw	r2,-4(fp)
 80002c4:	1880020e 	bge	r3,r2,80002d0 <_check_overlap+0x64>
        return 0;
 80002c8:	0005883a 	mov	r2,zero
 80002cc:	00000106 	br	80002d4 <_check_overlap+0x68>
    else
        return 1;
 80002d0:	00800044 	movi	r2,1
}
 80002d4:	e037883a 	mov	sp,fp
 80002d8:	df000017 	ldw	fp,0(sp)
 80002dc:	dec00104 	addi	sp,sp,4
 80002e0:	f800283a 	ret

080002e4 <game_init>:


void game_init(void) {
 80002e4:	defffe04 	addi	sp,sp,-8
 80002e8:	df000115 	stw	fp,4(sp)
 80002ec:	df000104 	addi	fp,sp,4
    int i;
    // set the game attributes : not started, map 0, maximum health 5
    vga_ctrl->game_attr = SET_GAME_ATTR_START(0) | SET_GAME_ATTR_MAP_NUM(0) | SET_GAME_ATTR_HEALTH(MAX_HEALTH_DEFAULT);
 80002f0:	d0a00017 	ldw	r2,-32768(gp)
 80002f4:	00c02804 	movi	r3,160
 80002f8:	10c80915 	stw	r3,8228(r2)
    // mark all the coins present with default positions
    vga_ctrl->coin_attr[GOLD_COIN] = GET_POS_COIN(GOLD_COIN_DEFAULT_X, GOLD_COIN_DEFAULT_Y);
 80002fc:	d0e00017 	ldw	r3,-32768(gp)
 8000300:	00800234 	movhi	r2,8
 8000304:	10a0a044 	addi	r2,r2,-32127
 8000308:	18880a15 	stw	r2,8232(r3)
    vga_ctrl->coin_attr[SILVER_COIN] = GET_POS_COIN(SILVER_COIN_DEFAULT_X, SILVER_COIN_DEFAULT_Y);
 800030c:	d0e00017 	ldw	r3,-32768(gp)
 8000310:	008000f4 	movhi	r2,3
 8000314:	1088a044 	addi	r2,r2,8833
 8000318:	18880b15 	stw	r2,8236(r3)
    vga_ctrl->coin_attr[BRONZE_COIN] = GET_POS_COIN(BRONZE_COIN_DEFAULT_X, BRONZE_COIN_DEFAULT_Y);
 800031c:	d0e00017 	ldw	r3,-32768(gp)
 8000320:	00800334 	movhi	r2,12
 8000324:	10b8a044 	addi	r2,r2,-7551
 8000328:	18880c15 	stw	r2,8240(r3)
    // health is read only
    for(i=0; i<TANK_NUM; i++) vga_ctrl->score[i] = 0;
 800032c:	e03fff15 	stw	zero,-4(fp)
 8000330:	00000a06 	br	800035c <game_init+0x78>
 8000334:	d0e00017 	ldw	r3,-32768(gp)
 8000338:	e0bfff17 	ldw	r2,-4(fp)
 800033c:	108203c4 	addi	r2,r2,2063
 8000340:	1085883a 	add	r2,r2,r2
 8000344:	1085883a 	add	r2,r2,r2
 8000348:	1885883a 	add	r2,r3,r2
 800034c:	10000015 	stw	zero,0(r2)
 8000350:	e0bfff17 	ldw	r2,-4(fp)
 8000354:	10800044 	addi	r2,r2,1
 8000358:	e0bfff15 	stw	r2,-4(fp)
 800035c:	e0bfff17 	ldw	r2,-4(fp)
 8000360:	10800090 	cmplti	r2,r2,2
 8000364:	103ff31e 	bne	r2,zero,8000334 <__alt_data_end+0xfc000334>
    vga_ctrl->init_pos[0] = GET_POS(TANK_1_DEAULT_X, TANK_1_DEAULT_Y);
 8000368:	d0e00017 	ldw	r3,-32768(gp)
 800036c:	008000f4 	movhi	r2,3
 8000370:	10883204 	addi	r2,r2,8392
 8000374:	18881115 	stw	r2,8260(r3)
    vga_ctrl->init_pos[1] = GET_POS(TANK_2_DEAULT_X, TANK_2_DEAULT_Y);
 8000378:	d0e00017 	ldw	r3,-32768(gp)
 800037c:	008001b4 	movhi	r2,6
 8000380:	10906404 	addi	r2,r2,16784
 8000384:	18881215 	stw	r2,8264(r3)
    for(i = 0; i < WALL_NUM; i++) vga_ctrl->wall_pos[i] = 0;
 8000388:	e03fff15 	stw	zero,-4(fp)
 800038c:	00000a06 	br	80003b8 <game_init+0xd4>
 8000390:	d0e00017 	ldw	r3,-32768(gp)
 8000394:	e0bfff17 	ldw	r2,-4(fp)
 8000398:	108204c4 	addi	r2,r2,2067
 800039c:	1085883a 	add	r2,r2,r2
 80003a0:	1085883a 	add	r2,r2,r2
 80003a4:	1885883a 	add	r2,r3,r2
 80003a8:	10000015 	stw	zero,0(r2)
 80003ac:	e0bfff17 	ldw	r2,-4(fp)
 80003b0:	10800044 	addi	r2,r2,1
 80003b4:	e0bfff15 	stw	r2,-4(fp)
 80003b8:	e0bfff17 	ldw	r2,-4(fp)
 80003bc:	10800410 	cmplti	r2,r2,16
 80003c0:	103ff31e 	bne	r2,zero,8000390 <__alt_data_end+0xfc000390>
    vga_ctrl->gear_attr[0] = GET_POS_GEAR(HEALTH_GEAR_DEAFULT_X, HEALTH_GEAR_DEAFULT_Y);
 80003c4:	d0a00017 	ldw	r2,-32768(gp)
 80003c8:	00f09854 	movui	r3,49761
 80003cc:	10c82715 	stw	r3,8348(r2)
    vga_ctrl->gear_attr[1] = GET_POS_GEAR(SPEED_GEAR_DEAFULT_X, SPEED_GEAR_DEAFULT_Y);
 80003d0:	d0e00017 	ldw	r3,-32768(gp)
 80003d4:	00800374 	movhi	r2,13
 80003d8:	10bc9844 	addi	r2,r2,-3487
 80003dc:	18882815 	stw	r2,8352(r3)
}
 80003e0:	0001883a 	nop
 80003e4:	e037883a 	mov	sp,fp
 80003e8:	df000017 	ldw	fp,0(sp)
 80003ec:	dec00104 	addi	sp,sp,4
 80003f0:	f800283a 	ret

080003f4 <show_menu>:
 * Should not use black color as both background and foreground color.
 * textVGADrawColorText (color_string, x, y, bg, fg) will show the string with upper left corner at (x,y), 
 * with background color bg and foreground color fg. Definition of colors are in text_mode_vga.h.
 * @todo : currently only start will work, map and settings are not implemented.
 */
void show_menu(int choice, int is_map) {
 80003f4:	deffe304 	addi	sp,sp,-116
 80003f8:	dfc01c15 	stw	ra,112(sp)
 80003fc:	df001b15 	stw	fp,108(sp)
 8000400:	df001b04 	addi	fp,sp,108
 8000404:	e13ffe15 	stw	r4,-8(fp)
 8000408:	e17fff15 	stw	r5,-4(fp)
    char color_string[80]; // maximum 80 characters per line, each character is 8x16 pixels
    int i, y;
    char start_back = PADDING_COLOR;
 800040c:	00800184 	movi	r2,6
 8000410:	e0bfe805 	stb	r2,-96(fp)
    char start_font = FONT_COLOR;
 8000414:	008000c4 	movi	r2,3
 8000418:	e0bfe845 	stb	r2,-95(fp)
    char map_back = PADDING_COLOR;
 800041c:	00800184 	movi	r2,6
 8000420:	e0bfe885 	stb	r2,-94(fp)
    char map_font = FONT_COLOR;
 8000424:	008000c4 	movi	r2,3
 8000428:	e0bfe8c5 	stb	r2,-93(fp)
    char setting_back = PADDING_COLOR;
 800042c:	00800184 	movi	r2,6
 8000430:	e0bfe905 	stb	r2,-92(fp)
    char setting_font = FONT_COLOR;
 8000434:	008000c4 	movi	r2,3
 8000438:	e0bfe945 	stb	r2,-91(fp)
    y = MENU_STARTING_ROW;
 800043c:	00800104 	movi	r2,4
 8000440:	e0bfe715 	stw	r2,-100(fp)
    switch (choice)
 8000444:	e0bffe17 	ldw	r2,-8(fp)
 8000448:	10c000a0 	cmpeqi	r3,r2,2
 800044c:	18000a1e 	bne	r3,zero,8000478 <show_menu+0x84>
 8000450:	10c000e0 	cmpeqi	r3,r2,3
 8000454:	18000d1e 	bne	r3,zero,800048c <show_menu+0x98>
 8000458:	10800060 	cmpeqi	r2,r2,1
 800045c:	1000011e 	bne	r2,zero,8000464 <show_menu+0x70>
    case SETTING:
        setting_back = HIGH_LIGHT_PADDING_COLOR;
        setting_font = HIGH_LIGHT_FONT_COLOR;
        break;
    default:
        break;
 8000460:	00000f06 	br	80004a0 <show_menu+0xac>
    char setting_font = FONT_COLOR;
    y = MENU_STARTING_ROW;
    switch (choice)
    {
    case START:
        start_back = HIGH_LIGHT_PADDING_COLOR;
 8000464:	00800044 	movi	r2,1
 8000468:	e0bfe805 	stb	r2,-96(fp)
        start_font = HIGH_LIGHT_FONT_COLOR;
 800046c:	008003c4 	movi	r2,15
 8000470:	e0bfe845 	stb	r2,-95(fp)
        break;
 8000474:	00000a06 	br	80004a0 <show_menu+0xac>
    case MAP:
        map_back = HIGH_LIGHT_PADDING_COLOR;
 8000478:	00800044 	movi	r2,1
 800047c:	e0bfe885 	stb	r2,-94(fp)
        map_font = HIGH_LIGHT_FONT_COLOR;
 8000480:	008003c4 	movi	r2,15
 8000484:	e0bfe8c5 	stb	r2,-93(fp)
        break;
 8000488:	00000506 	br	80004a0 <show_menu+0xac>
    case SETTING:
        setting_back = HIGH_LIGHT_PADDING_COLOR;
 800048c:	00800044 	movi	r2,1
 8000490:	e0bfe905 	stb	r2,-92(fp)
        setting_font = HIGH_LIGHT_FONT_COLOR;
 8000494:	008003c4 	movi	r2,15
 8000498:	e0bfe945 	stb	r2,-91(fp)
        break;
 800049c:	0001883a 	nop
    default:
        break;
    }
    // draw the upper padding rows
    for(i=0; i<MENU_UPPER_PADDING; i++) {
 80004a0:	e03fe615 	stw	zero,-104(fp)
 80004a4:	00001606 	br	8000500 <show_menu+0x10c>
        sprintf(color_string, "                                        ");
 80004a8:	e0ffe984 	addi	r3,fp,-90
 80004ac:	008200b4 	movhi	r2,2050
 80004b0:	10ab3b04 	addi	r2,r2,-21268
 80004b4:	1009883a 	mov	r4,r2
 80004b8:	00800a44 	movi	r2,41
 80004bc:	100d883a 	mov	r6,r2
 80004c0:	200b883a 	mov	r5,r4
 80004c4:	1809883a 	mov	r4,r3
 80004c8:	80059d40 	call	80059d4 <memcpy>
        textVGADrawColorText(color_string, MENU_LEFT_PADDING, y++, PADDING_COLOR, PADDING_COLOR);
 80004cc:	e0bfe717 	ldw	r2,-100(fp)
 80004d0:	10c00044 	addi	r3,r2,1
 80004d4:	e0ffe715 	stw	r3,-100(fp)
 80004d8:	e13fe984 	addi	r4,fp,-90
 80004dc:	00c00184 	movi	r3,6
 80004e0:	d8c00015 	stw	r3,0(sp)
 80004e4:	01c00184 	movi	r7,6
 80004e8:	100d883a 	mov	r6,r2
 80004ec:	01400504 	movi	r5,20
 80004f0:	80032ec0 	call	80032ec <textVGADrawColorText>
        break;
    default:
        break;
    }
    // draw the upper padding rows
    for(i=0; i<MENU_UPPER_PADDING; i++) {
 80004f4:	e0bfe617 	ldw	r2,-104(fp)
 80004f8:	10800044 	addi	r2,r2,1
 80004fc:	e0bfe615 	stw	r2,-104(fp)
 8000500:	e0bfe617 	ldw	r2,-104(fp)
 8000504:	00bfe80e 	bge	zero,r2,80004a8 <__alt_data_end+0xfc0004a8>
        sprintf(color_string, "                                        ");
        textVGADrawColorText(color_string, MENU_LEFT_PADDING, y++, PADDING_COLOR, PADDING_COLOR);
    }
    // draw the menu rows, center "MENU"
    sprintf(color_string, "                MENU                    ");
 8000508:	e0ffe984 	addi	r3,fp,-90
 800050c:	008200b4 	movhi	r2,2050
 8000510:	10ab4604 	addi	r2,r2,-21224
 8000514:	1009883a 	mov	r4,r2
 8000518:	00800a44 	movi	r2,41
 800051c:	100d883a 	mov	r6,r2
 8000520:	200b883a 	mov	r5,r4
 8000524:	1809883a 	mov	r4,r3
 8000528:	80059d40 	call	80059d4 <memcpy>
    textVGADrawColorText(color_string, MENU_LEFT_PADDING, y++, PADDING_COLOR, FONT_COLOR);
 800052c:	e0bfe717 	ldw	r2,-100(fp)
 8000530:	10c00044 	addi	r3,r2,1
 8000534:	e0ffe715 	stw	r3,-100(fp)
 8000538:	e13fe984 	addi	r4,fp,-90
 800053c:	00c000c4 	movi	r3,3
 8000540:	d8c00015 	stw	r3,0(sp)
 8000544:	01c00184 	movi	r7,6
 8000548:	100d883a 	mov	r6,r2
 800054c:	01400504 	movi	r5,20
 8000550:	80032ec0 	call	80032ec <textVGADrawColorText>
    // draw padding 1
    for(i=0; i<MENU_PADDING_1; i++) {
 8000554:	e03fe615 	stw	zero,-104(fp)
 8000558:	00001606 	br	80005b4 <show_menu+0x1c0>
        sprintf(color_string, "                                        ");
 800055c:	e0ffe984 	addi	r3,fp,-90
 8000560:	008200b4 	movhi	r2,2050
 8000564:	10ab3b04 	addi	r2,r2,-21268
 8000568:	1009883a 	mov	r4,r2
 800056c:	00800a44 	movi	r2,41
 8000570:	100d883a 	mov	r6,r2
 8000574:	200b883a 	mov	r5,r4
 8000578:	1809883a 	mov	r4,r3
 800057c:	80059d40 	call	80059d4 <memcpy>
        textVGADrawColorText(color_string, MENU_LEFT_PADDING, y++, PADDING_COLOR, PADDING_COLOR);
 8000580:	e0bfe717 	ldw	r2,-100(fp)
 8000584:	10c00044 	addi	r3,r2,1
 8000588:	e0ffe715 	stw	r3,-100(fp)
 800058c:	e13fe984 	addi	r4,fp,-90
 8000590:	00c00184 	movi	r3,6
 8000594:	d8c00015 	stw	r3,0(sp)
 8000598:	01c00184 	movi	r7,6
 800059c:	100d883a 	mov	r6,r2
 80005a0:	01400504 	movi	r5,20
 80005a4:	80032ec0 	call	80032ec <textVGADrawColorText>
    }
    // draw the menu rows, center "MENU"
    sprintf(color_string, "                MENU                    ");
    textVGADrawColorText(color_string, MENU_LEFT_PADDING, y++, PADDING_COLOR, FONT_COLOR);
    // draw padding 1
    for(i=0; i<MENU_PADDING_1; i++) {
 80005a8:	e0bfe617 	ldw	r2,-104(fp)
 80005ac:	10800044 	addi	r2,r2,1
 80005b0:	e0bfe615 	stw	r2,-104(fp)
 80005b4:	e0bfe617 	ldw	r2,-104(fp)
 80005b8:	108000d0 	cmplti	r2,r2,3
 80005bc:	103fe71e 	bne	r2,zero,800055c <__alt_data_end+0xfc00055c>
        sprintf(color_string, "                                        ");
        textVGADrawColorText(color_string, MENU_LEFT_PADDING, y++, PADDING_COLOR, PADDING_COLOR);
    }
    if (is_map == 0){
 80005c0:	e0bfff17 	ldw	r2,-4(fp)
 80005c4:	1000431e 	bne	r2,zero,80006d4 <show_menu+0x2e0>
        // draw 3 menu items "START", "MAP", "SETTINGS"
        sprintf(color_string, "                START                   ");
 80005c8:	e0ffe984 	addi	r3,fp,-90
 80005cc:	008200b4 	movhi	r2,2050
 80005d0:	10ab5104 	addi	r2,r2,-21180
 80005d4:	1009883a 	mov	r4,r2
 80005d8:	00800a44 	movi	r2,41
 80005dc:	100d883a 	mov	r6,r2
 80005e0:	200b883a 	mov	r5,r4
 80005e4:	1809883a 	mov	r4,r3
 80005e8:	80059d40 	call	80059d4 <memcpy>
        textVGADrawColorText(color_string, MENU_LEFT_PADDING, y++, start_back, start_font);
 80005ec:	e0bfe717 	ldw	r2,-100(fp)
 80005f0:	10c00044 	addi	r3,r2,1
 80005f4:	e0ffe715 	stw	r3,-100(fp)
 80005f8:	e0ffe803 	ldbu	r3,-96(fp)
 80005fc:	19403fcc 	andi	r5,r3,255
 8000600:	e0ffe843 	ldbu	r3,-95(fp)
 8000604:	18c03fcc 	andi	r3,r3,255
 8000608:	e13fe984 	addi	r4,fp,-90
 800060c:	d8c00015 	stw	r3,0(sp)
 8000610:	280f883a 	mov	r7,r5
 8000614:	100d883a 	mov	r6,r2
 8000618:	01400504 	movi	r5,20
 800061c:	80032ec0 	call	80032ec <textVGADrawColorText>
        sprintf(color_string, "                 MAP                    ");
 8000620:	e0ffe984 	addi	r3,fp,-90
 8000624:	008200b4 	movhi	r2,2050
 8000628:	10ab5c04 	addi	r2,r2,-21136
 800062c:	1009883a 	mov	r4,r2
 8000630:	00800a44 	movi	r2,41
 8000634:	100d883a 	mov	r6,r2
 8000638:	200b883a 	mov	r5,r4
 800063c:	1809883a 	mov	r4,r3
 8000640:	80059d40 	call	80059d4 <memcpy>
        textVGADrawColorText(color_string, MENU_LEFT_PADDING, y++, map_back, map_font);
 8000644:	e0bfe717 	ldw	r2,-100(fp)
 8000648:	10c00044 	addi	r3,r2,1
 800064c:	e0ffe715 	stw	r3,-100(fp)
 8000650:	e0ffe883 	ldbu	r3,-94(fp)
 8000654:	19403fcc 	andi	r5,r3,255
 8000658:	e0ffe8c3 	ldbu	r3,-93(fp)
 800065c:	18c03fcc 	andi	r3,r3,255
 8000660:	e13fe984 	addi	r4,fp,-90
 8000664:	d8c00015 	stw	r3,0(sp)
 8000668:	280f883a 	mov	r7,r5
 800066c:	100d883a 	mov	r6,r2
 8000670:	01400504 	movi	r5,20
 8000674:	80032ec0 	call	80032ec <textVGADrawColorText>
        sprintf(color_string, "              SETTINGS                  ");
 8000678:	e0ffe984 	addi	r3,fp,-90
 800067c:	008200b4 	movhi	r2,2050
 8000680:	10ab6704 	addi	r2,r2,-21092
 8000684:	1009883a 	mov	r4,r2
 8000688:	00800a44 	movi	r2,41
 800068c:	100d883a 	mov	r6,r2
 8000690:	200b883a 	mov	r5,r4
 8000694:	1809883a 	mov	r4,r3
 8000698:	80059d40 	call	80059d4 <memcpy>
        textVGADrawColorText(color_string, MENU_LEFT_PADDING, y++, setting_back, setting_font);
 800069c:	e0bfe717 	ldw	r2,-100(fp)
 80006a0:	10c00044 	addi	r3,r2,1
 80006a4:	e0ffe715 	stw	r3,-100(fp)
 80006a8:	e0ffe903 	ldbu	r3,-92(fp)
 80006ac:	19403fcc 	andi	r5,r3,255
 80006b0:	e0ffe943 	ldbu	r3,-91(fp)
 80006b4:	18c03fcc 	andi	r3,r3,255
 80006b8:	e13fe984 	addi	r4,fp,-90
 80006bc:	d8c00015 	stw	r3,0(sp)
 80006c0:	280f883a 	mov	r7,r5
 80006c4:	100d883a 	mov	r6,r2
 80006c8:	01400504 	movi	r5,20
 80006cc:	80032ec0 	call	80032ec <textVGADrawColorText>
 80006d0:	00004206 	br	80007dc <show_menu+0x3e8>
    }
    else{
        // draw 3 menu items "U MAP", "I MAP", "C MAP"
        sprintf(color_string, "                U MAP                   ");
 80006d4:	e0ffe984 	addi	r3,fp,-90
 80006d8:	008200b4 	movhi	r2,2050
 80006dc:	10ab7204 	addi	r2,r2,-21048
 80006e0:	1009883a 	mov	r4,r2
 80006e4:	00800a44 	movi	r2,41
 80006e8:	100d883a 	mov	r6,r2
 80006ec:	200b883a 	mov	r5,r4
 80006f0:	1809883a 	mov	r4,r3
 80006f4:	80059d40 	call	80059d4 <memcpy>
        textVGADrawColorText(color_string, MENU_LEFT_PADDING, y++, start_back, start_font);
 80006f8:	e0bfe717 	ldw	r2,-100(fp)
 80006fc:	10c00044 	addi	r3,r2,1
 8000700:	e0ffe715 	stw	r3,-100(fp)
 8000704:	e0ffe803 	ldbu	r3,-96(fp)
 8000708:	19403fcc 	andi	r5,r3,255
 800070c:	e0ffe843 	ldbu	r3,-95(fp)
 8000710:	18c03fcc 	andi	r3,r3,255
 8000714:	e13fe984 	addi	r4,fp,-90
 8000718:	d8c00015 	stw	r3,0(sp)
 800071c:	280f883a 	mov	r7,r5
 8000720:	100d883a 	mov	r6,r2
 8000724:	01400504 	movi	r5,20
 8000728:	80032ec0 	call	80032ec <textVGADrawColorText>
        sprintf(color_string, "                I MAP                   ");
 800072c:	e0ffe984 	addi	r3,fp,-90
 8000730:	008200b4 	movhi	r2,2050
 8000734:	10ab7d04 	addi	r2,r2,-21004
 8000738:	1009883a 	mov	r4,r2
 800073c:	00800a44 	movi	r2,41
 8000740:	100d883a 	mov	r6,r2
 8000744:	200b883a 	mov	r5,r4
 8000748:	1809883a 	mov	r4,r3
 800074c:	80059d40 	call	80059d4 <memcpy>
        textVGADrawColorText(color_string, MENU_LEFT_PADDING, y++, map_back, map_font);
 8000750:	e0bfe717 	ldw	r2,-100(fp)
 8000754:	10c00044 	addi	r3,r2,1
 8000758:	e0ffe715 	stw	r3,-100(fp)
 800075c:	e0ffe883 	ldbu	r3,-94(fp)
 8000760:	19403fcc 	andi	r5,r3,255
 8000764:	e0ffe8c3 	ldbu	r3,-93(fp)
 8000768:	18c03fcc 	andi	r3,r3,255
 800076c:	e13fe984 	addi	r4,fp,-90
 8000770:	d8c00015 	stw	r3,0(sp)
 8000774:	280f883a 	mov	r7,r5
 8000778:	100d883a 	mov	r6,r2
 800077c:	01400504 	movi	r5,20
 8000780:	80032ec0 	call	80032ec <textVGADrawColorText>
        sprintf(color_string, "                C MAP                   ");
 8000784:	e0ffe984 	addi	r3,fp,-90
 8000788:	008200b4 	movhi	r2,2050
 800078c:	10ab8804 	addi	r2,r2,-20960
 8000790:	1009883a 	mov	r4,r2
 8000794:	00800a44 	movi	r2,41
 8000798:	100d883a 	mov	r6,r2
 800079c:	200b883a 	mov	r5,r4
 80007a0:	1809883a 	mov	r4,r3
 80007a4:	80059d40 	call	80059d4 <memcpy>
        textVGADrawColorText(color_string, MENU_LEFT_PADDING, y++, setting_back, setting_font);
 80007a8:	e0bfe717 	ldw	r2,-100(fp)
 80007ac:	10c00044 	addi	r3,r2,1
 80007b0:	e0ffe715 	stw	r3,-100(fp)
 80007b4:	e0ffe903 	ldbu	r3,-92(fp)
 80007b8:	19403fcc 	andi	r5,r3,255
 80007bc:	e0ffe943 	ldbu	r3,-91(fp)
 80007c0:	18c03fcc 	andi	r3,r3,255
 80007c4:	e13fe984 	addi	r4,fp,-90
 80007c8:	d8c00015 	stw	r3,0(sp)
 80007cc:	280f883a 	mov	r7,r5
 80007d0:	100d883a 	mov	r6,r2
 80007d4:	01400504 	movi	r5,20
 80007d8:	80032ec0 	call	80032ec <textVGADrawColorText>
    }
    // draw lower padding
    for(i = 0; i < MENU_STARTING_ROW + MENU_HEIGHT - y; i++) {
 80007dc:	e03fe615 	stw	zero,-104(fp)
 80007e0:	00001606 	br	800083c <show_menu+0x448>
        sprintf(color_string, "                                        ");
 80007e4:	e0ffe984 	addi	r3,fp,-90
 80007e8:	008200b4 	movhi	r2,2050
 80007ec:	10ab3b04 	addi	r2,r2,-21268
 80007f0:	1009883a 	mov	r4,r2
 80007f4:	00800a44 	movi	r2,41
 80007f8:	100d883a 	mov	r6,r2
 80007fc:	200b883a 	mov	r5,r4
 8000800:	1809883a 	mov	r4,r3
 8000804:	80059d40 	call	80059d4 <memcpy>
        textVGADrawColorText(color_string, MENU_LEFT_PADDING, y++, PADDING_COLOR, PADDING_COLOR);
 8000808:	e0bfe717 	ldw	r2,-100(fp)
 800080c:	10c00044 	addi	r3,r2,1
 8000810:	e0ffe715 	stw	r3,-100(fp)
 8000814:	e13fe984 	addi	r4,fp,-90
 8000818:	00c00184 	movi	r3,6
 800081c:	d8c00015 	stw	r3,0(sp)
 8000820:	01c00184 	movi	r7,6
 8000824:	100d883a 	mov	r6,r2
 8000828:	01400504 	movi	r5,20
 800082c:	80032ec0 	call	80032ec <textVGADrawColorText>
        textVGADrawColorText(color_string, MENU_LEFT_PADDING, y++, map_back, map_font);
        sprintf(color_string, "                C MAP                   ");
        textVGADrawColorText(color_string, MENU_LEFT_PADDING, y++, setting_back, setting_font);
    }
    // draw lower padding
    for(i = 0; i < MENU_STARTING_ROW + MENU_HEIGHT - y; i++) {
 8000830:	e0bfe617 	ldw	r2,-104(fp)
 8000834:	10800044 	addi	r2,r2,1
 8000838:	e0bfe615 	stw	r2,-104(fp)
 800083c:	00c004c4 	movi	r3,19
 8000840:	e0bfe717 	ldw	r2,-100(fp)
 8000844:	1885c83a 	sub	r2,r3,r2
 8000848:	e0ffe617 	ldw	r3,-104(fp)
 800084c:	18bfe516 	blt	r3,r2,80007e4 <__alt_data_end+0xfc0007e4>
        sprintf(color_string, "                                        ");
        textVGADrawColorText(color_string, MENU_LEFT_PADDING, y++, PADDING_COLOR, PADDING_COLOR);
    }
}
 8000850:	0001883a 	nop
 8000854:	e037883a 	mov	sp,fp
 8000858:	dfc00117 	ldw	ra,4(sp)
 800085c:	df000017 	ldw	fp,0(sp)
 8000860:	dec00204 	addi	sp,sp,8
 8000864:	f800283a 	ret

08000868 <draw_status_bars>:


/**
 * @brief Status bar shows the HEALTH, SCORE, and BULLETS of the tank.
 */
void draw_status_bars(void) {
 8000868:	deffe804 	addi	sp,sp,-96
 800086c:	dfc01715 	stw	ra,92(sp)
 8000870:	df001615 	stw	fp,88(sp)
 8000874:	df001604 	addi	fp,sp,88
    // draw the status bar for tank 0
    char color_string[80];
    int y;
    y = TANK_1_STATUS_BAR_Y;
 8000878:	00800044 	movi	r2,1
 800087c:	e0bfeb15 	stw	r2,-84(fp)
    // pad the string to length of STATUS_BAR_LEN
    sprintf(color_string, "HEALTH:  %01lu", vga_ctrl->health[0]);
 8000880:	d0a00017 	ldw	r2,-32768(gp)
 8000884:	10c80d17 	ldw	r3,8244(r2)
 8000888:	e0bfec04 	addi	r2,fp,-80
 800088c:	180d883a 	mov	r6,r3
 8000890:	014200b4 	movhi	r5,2050
 8000894:	296b9304 	addi	r5,r5,-20916
 8000898:	1009883a 	mov	r4,r2
 800089c:	8005d500 	call	8005d50 <sprintf>
    textVGADrawColorText(color_string, TANK_1_STATUS_BAR_X, y++, PADDING_COLOR, FONT_COLOR);
 80008a0:	e0bfeb17 	ldw	r2,-84(fp)
 80008a4:	10c00044 	addi	r3,r2,1
 80008a8:	e0ffeb15 	stw	r3,-84(fp)
 80008ac:	e13fec04 	addi	r4,fp,-80
 80008b0:	00c000c4 	movi	r3,3
 80008b4:	d8c00015 	stw	r3,0(sp)
 80008b8:	01c00184 	movi	r7,6
 80008bc:	100d883a 	mov	r6,r2
 80008c0:	01400044 	movi	r5,1
 80008c4:	80032ec0 	call	80032ec <textVGADrawColorText>
    // keep pad the score to 3 digits
    sprintf(color_string, "SCORE: %03lu", vga_ctrl->score[0]);
 80008c8:	d0a00017 	ldw	r2,-32768(gp)
 80008cc:	10c80f17 	ldw	r3,8252(r2)
 80008d0:	e0bfec04 	addi	r2,fp,-80
 80008d4:	180d883a 	mov	r6,r3
 80008d8:	014200b4 	movhi	r5,2050
 80008dc:	296b9704 	addi	r5,r5,-20900
 80008e0:	1009883a 	mov	r4,r2
 80008e4:	8005d500 	call	8005d50 <sprintf>
    textVGADrawColorText(color_string, TANK_1_STATUS_BAR_X, y++, PADDING_COLOR, FONT_COLOR);
 80008e8:	e0bfeb17 	ldw	r2,-84(fp)
 80008ec:	10c00044 	addi	r3,r2,1
 80008f0:	e0ffeb15 	stw	r3,-84(fp)
 80008f4:	e13fec04 	addi	r4,fp,-80
 80008f8:	00c000c4 	movi	r3,3
 80008fc:	d8c00015 	stw	r3,0(sp)
 8000900:	01c00184 	movi	r7,6
 8000904:	100d883a 	mov	r6,r2
 8000908:	01400044 	movi	r5,1
 800090c:	80032ec0 	call	80032ec <textVGADrawColorText>
    // keep pad the bullets to 1 digits
    sprintf(color_string, "BULLETS: %01lu", vga_ctrl->bullet_num[0]);
 8000910:	d0a00017 	ldw	r2,-32768(gp)
 8000914:	10c82317 	ldw	r3,8332(r2)
 8000918:	e0bfec04 	addi	r2,fp,-80
 800091c:	180d883a 	mov	r6,r3
 8000920:	014200b4 	movhi	r5,2050
 8000924:	296b9b04 	addi	r5,r5,-20884
 8000928:	1009883a 	mov	r4,r2
 800092c:	8005d500 	call	8005d50 <sprintf>
    textVGADrawColorText(color_string, TANK_1_STATUS_BAR_X, y++, PADDING_COLOR, FONT_COLOR);
 8000930:	e0bfeb17 	ldw	r2,-84(fp)
 8000934:	10c00044 	addi	r3,r2,1
 8000938:	e0ffeb15 	stw	r3,-84(fp)
 800093c:	e13fec04 	addi	r4,fp,-80
 8000940:	00c000c4 	movi	r3,3
 8000944:	d8c00015 	stw	r3,0(sp)
 8000948:	01c00184 	movi	r7,6
 800094c:	100d883a 	mov	r6,r2
 8000950:	01400044 	movi	r5,1
 8000954:	80032ec0 	call	80032ec <textVGADrawColorText>

    // do the same for tank2
    y = TANK_2_STATUS_BAR_Y;
 8000958:	00800044 	movi	r2,1
 800095c:	e0bfeb15 	stw	r2,-84(fp)
    sprintf(color_string, "HEALTH:  %01lu", vga_ctrl->health[1]);
 8000960:	d0a00017 	ldw	r2,-32768(gp)
 8000964:	10c80e17 	ldw	r3,8248(r2)
 8000968:	e0bfec04 	addi	r2,fp,-80
 800096c:	180d883a 	mov	r6,r3
 8000970:	014200b4 	movhi	r5,2050
 8000974:	296b9304 	addi	r5,r5,-20916
 8000978:	1009883a 	mov	r4,r2
 800097c:	8005d500 	call	8005d50 <sprintf>
    textVGADrawColorText(color_string, TANK_2_STATUS_BAR_X, y++, PADDING_COLOR, FONT_COLOR);
 8000980:	e0bfeb17 	ldw	r2,-84(fp)
 8000984:	10c00044 	addi	r3,r2,1
 8000988:	e0ffeb15 	stw	r3,-84(fp)
 800098c:	e13fec04 	addi	r4,fp,-80
 8000990:	00c000c4 	movi	r3,3
 8000994:	d8c00015 	stw	r3,0(sp)
 8000998:	01c00184 	movi	r7,6
 800099c:	100d883a 	mov	r6,r2
 80009a0:	01401104 	movi	r5,68
 80009a4:	80032ec0 	call	80032ec <textVGADrawColorText>
    sprintf(color_string, "SCORE: %03lu", vga_ctrl->score[1]); 
 80009a8:	d0a00017 	ldw	r2,-32768(gp)
 80009ac:	10c81017 	ldw	r3,8256(r2)
 80009b0:	e0bfec04 	addi	r2,fp,-80
 80009b4:	180d883a 	mov	r6,r3
 80009b8:	014200b4 	movhi	r5,2050
 80009bc:	296b9704 	addi	r5,r5,-20900
 80009c0:	1009883a 	mov	r4,r2
 80009c4:	8005d500 	call	8005d50 <sprintf>
    textVGADrawColorText(color_string, TANK_2_STATUS_BAR_X, y++, PADDING_COLOR, FONT_COLOR);
 80009c8:	e0bfeb17 	ldw	r2,-84(fp)
 80009cc:	10c00044 	addi	r3,r2,1
 80009d0:	e0ffeb15 	stw	r3,-84(fp)
 80009d4:	e13fec04 	addi	r4,fp,-80
 80009d8:	00c000c4 	movi	r3,3
 80009dc:	d8c00015 	stw	r3,0(sp)
 80009e0:	01c00184 	movi	r7,6
 80009e4:	100d883a 	mov	r6,r2
 80009e8:	01401104 	movi	r5,68
 80009ec:	80032ec0 	call	80032ec <textVGADrawColorText>
    sprintf(color_string, "BULLETS: %01lu", vga_ctrl->bullet_num[1]);
 80009f0:	d0a00017 	ldw	r2,-32768(gp)
 80009f4:	10c82417 	ldw	r3,8336(r2)
 80009f8:	e0bfec04 	addi	r2,fp,-80
 80009fc:	180d883a 	mov	r6,r3
 8000a00:	014200b4 	movhi	r5,2050
 8000a04:	296b9b04 	addi	r5,r5,-20884
 8000a08:	1009883a 	mov	r4,r2
 8000a0c:	8005d500 	call	8005d50 <sprintf>
    textVGADrawColorText(color_string, TANK_2_STATUS_BAR_X, y++, PADDING_COLOR, FONT_COLOR);
 8000a10:	e0bfeb17 	ldw	r2,-84(fp)
 8000a14:	10c00044 	addi	r3,r2,1
 8000a18:	e0ffeb15 	stw	r3,-84(fp)
 8000a1c:	e13fec04 	addi	r4,fp,-80
 8000a20:	00c000c4 	movi	r3,3
 8000a24:	d8c00015 	stw	r3,0(sp)
 8000a28:	01c00184 	movi	r7,6
 8000a2c:	100d883a 	mov	r6,r2
 8000a30:	01401104 	movi	r5,68
 8000a34:	80032ec0 	call	80032ec <textVGADrawColorText>
}
 8000a38:	0001883a 	nop
 8000a3c:	e037883a 	mov	sp,fp
 8000a40:	dfc00117 	ldw	ra,4(sp)
 8000a44:	df000017 	ldw	fp,0(sp)
 8000a48:	dec00204 	addi	sp,sp,8
 8000a4c:	f800283a 	ret

08000a50 <__pull_back_up_walls>:
#define BACK_UP_POS_Y_2                 (BACK_UP_POS_Y_1 + WALL_LEN)
#define BACK_UP_POS_X_3                 (SCREEN_WIDTH_PIXEL - BACK_UP_POS_X_1 - WALL_LEN)
#define BACK_UP_POS_Y_3                 BACK_UP_POS_Y_1
#define BACK_UP_POS_X_4                 BACK_UP_POS_X_3
#define BACK_UP_POS_Y_4                 BACK_UP_POS_Y_2
static int __pull_back_up_walls() {
 8000a50:	deffff04 	addi	sp,sp,-4
 8000a54:	df000015 	stw	fp,0(sp)
 8000a58:	d839883a 	mov	fp,sp
    static int i = 0;
    if(i == NUM_BACK_UP_POS) return -1;
 8000a5c:	d0a82217 	ldw	r2,-24440(gp)
 8000a60:	10800118 	cmpnei	r2,r2,4
 8000a64:	1000021e 	bne	r2,zero,8000a70 <__pull_back_up_walls+0x20>
 8000a68:	00bfffc4 	movi	r2,-1
 8000a6c:	00000406 	br	8000a80 <__pull_back_up_walls+0x30>
    return i++;
 8000a70:	d0a82217 	ldw	r2,-24440(gp)
 8000a74:	10c00044 	addi	r3,r2,1
 8000a78:	d0e82215 	stw	r3,-24440(gp)
 8000a7c:	0001883a 	nop
}
 8000a80:	e037883a 	mov	sp,fp
 8000a84:	df000017 	ldw	fp,0(sp)
 8000a88:	dec00104 	addi	sp,sp,4
 8000a8c:	f800283a 	ret

08000a90 <_get_real_wall_pos>:
// @return new wall position
// if wall is not legal, then we pull one legal position from back_up_positions
static int _get_real_wall_pos(int x, int y) {
 8000a90:	defff004 	addi	sp,sp,-64
 8000a94:	dfc00f15 	stw	ra,60(sp)
 8000a98:	df000e15 	stw	fp,56(sp)
 8000a9c:	df000e04 	addi	fp,sp,56
 8000aa0:	e13ffe15 	stw	r4,-8(fp)
 8000aa4:	e17fff15 	stw	r5,-4(fp)
    int back_up_ind;
    int i;
    // second dimenstion is (x,y)
    static back_up_positions[NUM_BACK_UP_POS][2] = {{BACK_UP_POS_X_1, BACK_UP_POS_Y_1}, {BACK_UP_POS_X_2, BACK_UP_POS_Y_2}, {BACK_UP_POS_X_3, BACK_UP_POS_Y_3}, {BACK_UP_POS_X_4, BACK_UP_POS_Y_4}};
    // check if wall and coin overlaps
     for(i = 0; i < COIN_TYPES; i++) { // very special, coin's coordinate is the center, we need to convert them to upper left
 8000aa8:	e03ff215 	stw	zero,-56(fp)
 8000aac:	00002706 	br	8000b4c <_get_real_wall_pos+0xbc>
        coin_x[i] = GET_COIN_X(vga_ctrl->coin_attr[i]) - 16;
 8000ab0:	d0e00017 	ldw	r3,-32768(gp)
 8000ab4:	e0bff217 	ldw	r2,-56(fp)
 8000ab8:	10820284 	addi	r2,r2,2058
 8000abc:	1085883a 	add	r2,r2,r2
 8000ac0:	1085883a 	add	r2,r2,r2
 8000ac4:	1885883a 	add	r2,r3,r2
 8000ac8:	10800017 	ldw	r2,0(r2)
 8000acc:	1004d07a 	srli	r2,r2,1
 8000ad0:	1080ffcc 	andi	r2,r2,1023
 8000ad4:	10bffc04 	addi	r2,r2,-16
 8000ad8:	1007883a 	mov	r3,r2
 8000adc:	e0bff217 	ldw	r2,-56(fp)
 8000ae0:	1085883a 	add	r2,r2,r2
 8000ae4:	1085883a 	add	r2,r2,r2
 8000ae8:	e13ff204 	addi	r4,fp,-56
 8000aec:	2085883a 	add	r2,r4,r2
 8000af0:	10800204 	addi	r2,r2,8
 8000af4:	10c00015 	stw	r3,0(r2)
        coin_y[i] = GET_COIN_Y(vga_ctrl->coin_attr[i]) - 16;
 8000af8:	d0e00017 	ldw	r3,-32768(gp)
 8000afc:	e0bff217 	ldw	r2,-56(fp)
 8000b00:	10820284 	addi	r2,r2,2058
 8000b04:	1085883a 	add	r2,r2,r2
 8000b08:	1085883a 	add	r2,r2,r2
 8000b0c:	1885883a 	add	r2,r3,r2
 8000b10:	10800017 	ldw	r2,0(r2)
 8000b14:	1004d2fa 	srli	r2,r2,11
 8000b18:	1080ffcc 	andi	r2,r2,1023
 8000b1c:	10bffc04 	addi	r2,r2,-16
 8000b20:	1007883a 	mov	r3,r2
 8000b24:	e0bff217 	ldw	r2,-56(fp)
 8000b28:	1085883a 	add	r2,r2,r2
 8000b2c:	1085883a 	add	r2,r2,r2
 8000b30:	e13ff204 	addi	r4,fp,-56
 8000b34:	2085883a 	add	r2,r4,r2
 8000b38:	10800504 	addi	r2,r2,20
 8000b3c:	10c00015 	stw	r3,0(r2)
    int back_up_ind;
    int i;
    // second dimenstion is (x,y)
    static back_up_positions[NUM_BACK_UP_POS][2] = {{BACK_UP_POS_X_1, BACK_UP_POS_Y_1}, {BACK_UP_POS_X_2, BACK_UP_POS_Y_2}, {BACK_UP_POS_X_3, BACK_UP_POS_Y_3}, {BACK_UP_POS_X_4, BACK_UP_POS_Y_4}};
    // check if wall and coin overlaps
     for(i = 0; i < COIN_TYPES; i++) { // very special, coin's coordinate is the center, we need to convert them to upper left
 8000b40:	e0bff217 	ldw	r2,-56(fp)
 8000b44:	10800044 	addi	r2,r2,1
 8000b48:	e0bff215 	stw	r2,-56(fp)
 8000b4c:	e0bff217 	ldw	r2,-56(fp)
 8000b50:	108000d0 	cmplti	r2,r2,3
 8000b54:	103fd61e 	bne	r2,zero,8000ab0 <__alt_data_end+0xfc000ab0>
        coin_x[i] = GET_COIN_X(vga_ctrl->coin_attr[i]) - 16;
        coin_y[i] = GET_COIN_Y(vga_ctrl->coin_attr[i]) - 16;
    }
    for(i = 0; i < GEAR_TYPES; i++) {
 8000b58:	e03ff215 	stw	zero,-56(fp)
 8000b5c:	00002306 	br	8000bec <_get_real_wall_pos+0x15c>
        gear_x[i] = GET_GEAR_X(vga_ctrl->gear_attr[i]);
 8000b60:	d0e00017 	ldw	r3,-32768(gp)
 8000b64:	e0bff217 	ldw	r2,-56(fp)
 8000b68:	108209c4 	addi	r2,r2,2087
 8000b6c:	1085883a 	add	r2,r2,r2
 8000b70:	1085883a 	add	r2,r2,r2
 8000b74:	1885883a 	add	r2,r3,r2
 8000b78:	10800017 	ldw	r2,0(r2)
 8000b7c:	1004d07a 	srli	r2,r2,1
 8000b80:	10c0ffcc 	andi	r3,r2,1023
 8000b84:	e0bff217 	ldw	r2,-56(fp)
 8000b88:	1085883a 	add	r2,r2,r2
 8000b8c:	1085883a 	add	r2,r2,r2
 8000b90:	e13ff204 	addi	r4,fp,-56
 8000b94:	2085883a 	add	r2,r4,r2
 8000b98:	10800804 	addi	r2,r2,32
 8000b9c:	10c00015 	stw	r3,0(r2)
        gear_y[i] = GET_GEAR_Y(vga_ctrl->gear_attr[i]);
 8000ba0:	d0e00017 	ldw	r3,-32768(gp)
 8000ba4:	e0bff217 	ldw	r2,-56(fp)
 8000ba8:	108209c4 	addi	r2,r2,2087
 8000bac:	1085883a 	add	r2,r2,r2
 8000bb0:	1085883a 	add	r2,r2,r2
 8000bb4:	1885883a 	add	r2,r3,r2
 8000bb8:	10800017 	ldw	r2,0(r2)
 8000bbc:	1004d2fa 	srli	r2,r2,11
 8000bc0:	10c0ffcc 	andi	r3,r2,1023
 8000bc4:	e0bff217 	ldw	r2,-56(fp)
 8000bc8:	1085883a 	add	r2,r2,r2
 8000bcc:	1085883a 	add	r2,r2,r2
 8000bd0:	e13ff204 	addi	r4,fp,-56
 8000bd4:	2085883a 	add	r2,r4,r2
 8000bd8:	10800a04 	addi	r2,r2,40
 8000bdc:	10c00015 	stw	r3,0(r2)
    // check if wall and coin overlaps
     for(i = 0; i < COIN_TYPES; i++) { // very special, coin's coordinate is the center, we need to convert them to upper left
        coin_x[i] = GET_COIN_X(vga_ctrl->coin_attr[i]) - 16;
        coin_y[i] = GET_COIN_Y(vga_ctrl->coin_attr[i]) - 16;
    }
    for(i = 0; i < GEAR_TYPES; i++) {
 8000be0:	e0bff217 	ldw	r2,-56(fp)
 8000be4:	10800044 	addi	r2,r2,1
 8000be8:	e0bff215 	stw	r2,-56(fp)
 8000bec:	e0bff217 	ldw	r2,-56(fp)
 8000bf0:	10800090 	cmplti	r2,r2,2
 8000bf4:	103fda1e 	bne	r2,zero,8000b60 <__alt_data_end+0xfc000b60>
        gear_x[i] = GET_GEAR_X(vga_ctrl->gear_attr[i]);
        gear_y[i] = GET_GEAR_Y(vga_ctrl->gear_attr[i]);
    }

    // check if wall and coin overlaps
    for(i = 0; i < COIN_TYPES; i++) {
 8000bf8:	e03ff215 	stw	zero,-56(fp)
 8000bfc:	00003406 	br	8000cd0 <_get_real_wall_pos+0x240>
        if(COIN_EXIST(vga_ctrl->coin_attr[i]) && _check_overlap(x, y, coin_x[i], coin_y[i])) {
 8000c00:	d0e00017 	ldw	r3,-32768(gp)
 8000c04:	e0bff217 	ldw	r2,-56(fp)
 8000c08:	10820284 	addi	r2,r2,2058
 8000c0c:	1085883a 	add	r2,r2,r2
 8000c10:	1085883a 	add	r2,r2,r2
 8000c14:	1885883a 	add	r2,r3,r2
 8000c18:	10800017 	ldw	r2,0(r2)
 8000c1c:	1080004c 	andi	r2,r2,1
 8000c20:	10002826 	beq	r2,zero,8000cc4 <_get_real_wall_pos+0x234>
 8000c24:	e0bff217 	ldw	r2,-56(fp)
 8000c28:	1085883a 	add	r2,r2,r2
 8000c2c:	1085883a 	add	r2,r2,r2
 8000c30:	e0fff204 	addi	r3,fp,-56
 8000c34:	1885883a 	add	r2,r3,r2
 8000c38:	10800204 	addi	r2,r2,8
 8000c3c:	10c00017 	ldw	r3,0(r2)
 8000c40:	e0bff217 	ldw	r2,-56(fp)
 8000c44:	1085883a 	add	r2,r2,r2
 8000c48:	1085883a 	add	r2,r2,r2
 8000c4c:	e13ff204 	addi	r4,fp,-56
 8000c50:	2085883a 	add	r2,r4,r2
 8000c54:	10800504 	addi	r2,r2,20
 8000c58:	10800017 	ldw	r2,0(r2)
 8000c5c:	100f883a 	mov	r7,r2
 8000c60:	180d883a 	mov	r6,r3
 8000c64:	e17fff17 	ldw	r5,-4(fp)
 8000c68:	e13ffe17 	ldw	r4,-8(fp)
 8000c6c:	800026c0 	call	800026c <_check_overlap>
 8000c70:	10001426 	beq	r2,zero,8000cc4 <_get_real_wall_pos+0x234>
            back_up_ind = __pull_back_up_walls();
 8000c74:	8000a500 	call	8000a50 <__pull_back_up_walls>
 8000c78:	e0bff315 	stw	r2,-52(fp)
            return GET_WALL_POS(back_up_positions[back_up_ind][0], back_up_positions[back_up_ind][1]);
 8000c7c:	008200b4 	movhi	r2,2050
 8000c80:	10adbf04 	addi	r2,r2,-18692
 8000c84:	e0fff317 	ldw	r3,-52(fp)
 8000c88:	180690fa 	slli	r3,r3,3
 8000c8c:	10c5883a 	add	r2,r2,r3
 8000c90:	10800017 	ldw	r2,0(r2)
 8000c94:	1085883a 	add	r2,r2,r2
 8000c98:	10c00054 	ori	r3,r2,1
 8000c9c:	008200b4 	movhi	r2,2050
 8000ca0:	10adbf04 	addi	r2,r2,-18692
 8000ca4:	e13ff317 	ldw	r4,-52(fp)
 8000ca8:	200890fa 	slli	r4,r4,3
 8000cac:	1105883a 	add	r2,r2,r4
 8000cb0:	10800104 	addi	r2,r2,4
 8000cb4:	10800017 	ldw	r2,0(r2)
 8000cb8:	100492fa 	slli	r2,r2,11
 8000cbc:	1884b03a 	or	r2,r3,r2
 8000cc0:	00004506 	br	8000dd8 <_get_real_wall_pos+0x348>
        gear_x[i] = GET_GEAR_X(vga_ctrl->gear_attr[i]);
        gear_y[i] = GET_GEAR_Y(vga_ctrl->gear_attr[i]);
    }

    // check if wall and coin overlaps
    for(i = 0; i < COIN_TYPES; i++) {
 8000cc4:	e0bff217 	ldw	r2,-56(fp)
 8000cc8:	10800044 	addi	r2,r2,1
 8000ccc:	e0bff215 	stw	r2,-56(fp)
 8000cd0:	e0bff217 	ldw	r2,-56(fp)
 8000cd4:	108000d0 	cmplti	r2,r2,3
 8000cd8:	103fc91e 	bne	r2,zero,8000c00 <__alt_data_end+0xfc000c00>
            return GET_WALL_POS(back_up_positions[back_up_ind][0], back_up_positions[back_up_ind][1]);
        }
    }

    // check if wall and gear overlaps
    for(i = 0; i < GEAR_TYPES; i++) {
 8000cdc:	e03ff215 	stw	zero,-56(fp)
 8000ce0:	00003406 	br	8000db4 <_get_real_wall_pos+0x324>
        if(GEAR_EXIST(vga_ctrl->gear_attr[i]) && _check_overlap(x, y, gear_x[i], gear_y[i])) {
 8000ce4:	d0e00017 	ldw	r3,-32768(gp)
 8000ce8:	e0bff217 	ldw	r2,-56(fp)
 8000cec:	108209c4 	addi	r2,r2,2087
 8000cf0:	1085883a 	add	r2,r2,r2
 8000cf4:	1085883a 	add	r2,r2,r2
 8000cf8:	1885883a 	add	r2,r3,r2
 8000cfc:	10800017 	ldw	r2,0(r2)
 8000d00:	1080004c 	andi	r2,r2,1
 8000d04:	10002826 	beq	r2,zero,8000da8 <_get_real_wall_pos+0x318>
 8000d08:	e0bff217 	ldw	r2,-56(fp)
 8000d0c:	1085883a 	add	r2,r2,r2
 8000d10:	1085883a 	add	r2,r2,r2
 8000d14:	e0fff204 	addi	r3,fp,-56
 8000d18:	1885883a 	add	r2,r3,r2
 8000d1c:	10800804 	addi	r2,r2,32
 8000d20:	10c00017 	ldw	r3,0(r2)
 8000d24:	e0bff217 	ldw	r2,-56(fp)
 8000d28:	1085883a 	add	r2,r2,r2
 8000d2c:	1085883a 	add	r2,r2,r2
 8000d30:	e13ff204 	addi	r4,fp,-56
 8000d34:	2085883a 	add	r2,r4,r2
 8000d38:	10800a04 	addi	r2,r2,40
 8000d3c:	10800017 	ldw	r2,0(r2)
 8000d40:	100f883a 	mov	r7,r2
 8000d44:	180d883a 	mov	r6,r3
 8000d48:	e17fff17 	ldw	r5,-4(fp)
 8000d4c:	e13ffe17 	ldw	r4,-8(fp)
 8000d50:	800026c0 	call	800026c <_check_overlap>
 8000d54:	10001426 	beq	r2,zero,8000da8 <_get_real_wall_pos+0x318>
            back_up_ind = __pull_back_up_walls();
 8000d58:	8000a500 	call	8000a50 <__pull_back_up_walls>
 8000d5c:	e0bff315 	stw	r2,-52(fp)
            return GET_WALL_POS(back_up_positions[back_up_ind][0], back_up_positions[back_up_ind][1]);
 8000d60:	008200b4 	movhi	r2,2050
 8000d64:	10adbf04 	addi	r2,r2,-18692
 8000d68:	e0fff317 	ldw	r3,-52(fp)
 8000d6c:	180690fa 	slli	r3,r3,3
 8000d70:	10c5883a 	add	r2,r2,r3
 8000d74:	10800017 	ldw	r2,0(r2)
 8000d78:	1085883a 	add	r2,r2,r2
 8000d7c:	10c00054 	ori	r3,r2,1
 8000d80:	008200b4 	movhi	r2,2050
 8000d84:	10adbf04 	addi	r2,r2,-18692
 8000d88:	e13ff317 	ldw	r4,-52(fp)
 8000d8c:	200890fa 	slli	r4,r4,3
 8000d90:	1105883a 	add	r2,r2,r4
 8000d94:	10800104 	addi	r2,r2,4
 8000d98:	10800017 	ldw	r2,0(r2)
 8000d9c:	100492fa 	slli	r2,r2,11
 8000da0:	1884b03a 	or	r2,r3,r2
 8000da4:	00000c06 	br	8000dd8 <_get_real_wall_pos+0x348>
            return GET_WALL_POS(back_up_positions[back_up_ind][0], back_up_positions[back_up_ind][1]);
        }
    }

    // check if wall and gear overlaps
    for(i = 0; i < GEAR_TYPES; i++) {
 8000da8:	e0bff217 	ldw	r2,-56(fp)
 8000dac:	10800044 	addi	r2,r2,1
 8000db0:	e0bff215 	stw	r2,-56(fp)
 8000db4:	e0bff217 	ldw	r2,-56(fp)
 8000db8:	10800090 	cmplti	r2,r2,2
 8000dbc:	103fc91e 	bne	r2,zero,8000ce4 <__alt_data_end+0xfc000ce4>
        }
    }

    // if original wall position is legal, then return it, three return result are 
    // in form of (1 | (x << 1) | (y << 11)) with first bit valid bit set to 1
    return GET_WALL_POS(x, y);
 8000dc0:	e0bffe17 	ldw	r2,-8(fp)
 8000dc4:	1085883a 	add	r2,r2,r2
 8000dc8:	10c00054 	ori	r3,r2,1
 8000dcc:	e0bfff17 	ldw	r2,-4(fp)
 8000dd0:	100492fa 	slli	r2,r2,11
 8000dd4:	1884b03a 	or	r2,r3,r2
}
 8000dd8:	e037883a 	mov	sp,fp
 8000ddc:	dfc00117 	ldw	ra,4(sp)
 8000de0:	df000017 	ldw	fp,0(sp)
 8000de4:	dec00204 	addi	sp,sp,8
 8000de8:	f800283a 	ret

08000dec <draw_wall>:

void draw_wall(void) {
 8000dec:	deffe804 	addi	sp,sp,-96
 8000df0:	dfc01715 	stw	ra,92(sp)
 8000df4:	df001615 	stw	fp,88(sp)
 8000df8:	dc401515 	stw	r17,84(sp)
 8000dfc:	dc001415 	stw	r16,80(sp)
 8000e00:	df001604 	addi	fp,sp,88
    static wall_drawn = 0;
    int map_type = (vga_ctrl->game_attr >> 1) & 0xF;
 8000e04:	d0a00017 	ldw	r2,-32768(gp)
 8000e08:	10880917 	ldw	r2,8228(r2)
 8000e0c:	1004d07a 	srli	r2,r2,1
 8000e10:	108003cc 	andi	r2,r2,15
 8000e14:	e0bff615 	stw	r2,-40(fp)
    int x_leftinitial, y_initial, x_rightinitial, y_bottom, x_bottomleft;
    int x_middle, y_up;
    if(wall_drawn) return;
 8000e18:	d0a82317 	ldw	r2,-24436(gp)
 8000e1c:	1001541e 	bne	r2,zero,8001370 <draw_wall+0x584>
    wall_drawn = 1;
 8000e20:	00800044 	movi	r2,1
 8000e24:	d0a82315 	stw	r2,-24436(gp)
    printf("map type: %d\n", map_type);
 8000e28:	e17ff617 	ldw	r5,-40(fp)
 8000e2c:	010200b4 	movhi	r4,2050
 8000e30:	212b9f04 	addi	r4,r4,-20868
 8000e34:	8005b4c0 	call	8005b4c <printf>
    switch (map_type){
 8000e38:	e0bff617 	ldw	r2,-40(fp)
 8000e3c:	10c000a0 	cmpeqi	r3,r2,2
 8000e40:	1800561e 	bne	r3,zero,8000f9c <draw_wall+0x1b0>
 8000e44:	10c00120 	cmpeqi	r3,r2,4
 8000e48:	1800a61e 	bne	r3,zero,80010e4 <draw_wall+0x2f8>
 8000e4c:	10800060 	cmpeqi	r2,r2,1
 8000e50:	1000f426 	beq	r2,zero,8001224 <draw_wall+0x438>
    case 1:
        x_leftinitial = 240;
 8000e54:	00803c04 	movi	r2,240
 8000e58:	e0bff715 	stw	r2,-36(fp)
        y_initial = 144;
 8000e5c:	00802404 	movi	r2,144
 8000e60:	e0bff815 	stw	r2,-32(fp)
        x_rightinitial = 368;
 8000e64:	00805c04 	movi	r2,368
 8000e68:	e0bff915 	stw	r2,-28(fp)
        y_bottom = 304;
 8000e6c:	00804c04 	movi	r2,304
 8000e70:	e0bffa15 	stw	r2,-24(fp)
        x_bottomleft = 272;
 8000e74:	00804404 	movi	r2,272
 8000e78:	e0bffb15 	stw	r2,-20(fp)
        // draw left vertical line of 'U'
        for (int i = 0; i < 6; i++){
 8000e7c:	e03fea15 	stw	zero,-88(fp)
 8000e80:	00001206 	br	8000ecc <draw_wall+0xe0>
            vga_ctrl->wall_pos[i] = _get_real_wall_pos(x_leftinitial, y_initial + i * 32);
 8000e84:	d4200017 	ldw	r16,-32768(gp)
 8000e88:	e0bfea17 	ldw	r2,-88(fp)
 8000e8c:	1006917a 	slli	r3,r2,5
 8000e90:	e0bff817 	ldw	r2,-32(fp)
 8000e94:	1885883a 	add	r2,r3,r2
 8000e98:	100b883a 	mov	r5,r2
 8000e9c:	e13ff717 	ldw	r4,-36(fp)
 8000ea0:	8000a900 	call	8000a90 <_get_real_wall_pos>
 8000ea4:	1007883a 	mov	r3,r2
 8000ea8:	e0bfea17 	ldw	r2,-88(fp)
 8000eac:	108204c4 	addi	r2,r2,2067
 8000eb0:	1085883a 	add	r2,r2,r2
 8000eb4:	1085883a 	add	r2,r2,r2
 8000eb8:	8085883a 	add	r2,r16,r2
 8000ebc:	10c00015 	stw	r3,0(r2)
        y_initial = 144;
        x_rightinitial = 368;
        y_bottom = 304;
        x_bottomleft = 272;
        // draw left vertical line of 'U'
        for (int i = 0; i < 6; i++){
 8000ec0:	e0bfea17 	ldw	r2,-88(fp)
 8000ec4:	10800044 	addi	r2,r2,1
 8000ec8:	e0bfea15 	stw	r2,-88(fp)
 8000ecc:	e0bfea17 	ldw	r2,-88(fp)
 8000ed0:	10800190 	cmplti	r2,r2,6
 8000ed4:	103feb1e 	bne	r2,zero,8000e84 <__alt_data_end+0xfc000e84>
            vga_ctrl->wall_pos[i] = _get_real_wall_pos(x_leftinitial, y_initial + i * 32);
        }
        // draw right vertical line of 'U'
        for (int i = 0; i < 6; i++){
 8000ed8:	e03feb15 	stw	zero,-84(fp)
 8000edc:	00001306 	br	8000f2c <draw_wall+0x140>
            vga_ctrl->wall_pos[i + 6] = _get_real_wall_pos(x_rightinitial, y_initial + i * 32);
 8000ee0:	d4200017 	ldw	r16,-32768(gp)
 8000ee4:	e0bfeb17 	ldw	r2,-84(fp)
 8000ee8:	14400184 	addi	r17,r2,6
 8000eec:	e0bfeb17 	ldw	r2,-84(fp)
 8000ef0:	1006917a 	slli	r3,r2,5
 8000ef4:	e0bff817 	ldw	r2,-32(fp)
 8000ef8:	1885883a 	add	r2,r3,r2
 8000efc:	100b883a 	mov	r5,r2
 8000f00:	e13ff917 	ldw	r4,-28(fp)
 8000f04:	8000a900 	call	8000a90 <_get_real_wall_pos>
 8000f08:	1007883a 	mov	r3,r2
 8000f0c:	888204c4 	addi	r2,r17,2067
 8000f10:	1085883a 	add	r2,r2,r2
 8000f14:	1085883a 	add	r2,r2,r2
 8000f18:	8085883a 	add	r2,r16,r2
 8000f1c:	10c00015 	stw	r3,0(r2)
        // draw left vertical line of 'U'
        for (int i = 0; i < 6; i++){
            vga_ctrl->wall_pos[i] = _get_real_wall_pos(x_leftinitial, y_initial + i * 32);
        }
        // draw right vertical line of 'U'
        for (int i = 0; i < 6; i++){
 8000f20:	e0bfeb17 	ldw	r2,-84(fp)
 8000f24:	10800044 	addi	r2,r2,1
 8000f28:	e0bfeb15 	stw	r2,-84(fp)
 8000f2c:	e0bfeb17 	ldw	r2,-84(fp)
 8000f30:	10800190 	cmplti	r2,r2,6
 8000f34:	103fea1e 	bne	r2,zero,8000ee0 <__alt_data_end+0xfc000ee0>
            vga_ctrl->wall_pos[i + 6] = _get_real_wall_pos(x_rightinitial, y_initial + i * 32);
        }
        // draw bottom horizontal line of 'U'
        for (int i = 0; i < 3; i++){
 8000f38:	e03fec15 	stw	zero,-80(fp)
 8000f3c:	00001306 	br	8000f8c <draw_wall+0x1a0>
            vga_ctrl->wall_pos[i + 12] = _get_real_wall_pos(x_bottomleft + i * 32, y_bottom);
 8000f40:	d4200017 	ldw	r16,-32768(gp)
 8000f44:	e0bfec17 	ldw	r2,-80(fp)
 8000f48:	14400304 	addi	r17,r2,12
 8000f4c:	e0bfec17 	ldw	r2,-80(fp)
 8000f50:	1006917a 	slli	r3,r2,5
 8000f54:	e0bffb17 	ldw	r2,-20(fp)
 8000f58:	1885883a 	add	r2,r3,r2
 8000f5c:	e17ffa17 	ldw	r5,-24(fp)
 8000f60:	1009883a 	mov	r4,r2
 8000f64:	8000a900 	call	8000a90 <_get_real_wall_pos>
 8000f68:	1007883a 	mov	r3,r2
 8000f6c:	888204c4 	addi	r2,r17,2067
 8000f70:	1085883a 	add	r2,r2,r2
 8000f74:	1085883a 	add	r2,r2,r2
 8000f78:	8085883a 	add	r2,r16,r2
 8000f7c:	10c00015 	stw	r3,0(r2)
        // draw right vertical line of 'U'
        for (int i = 0; i < 6; i++){
            vga_ctrl->wall_pos[i + 6] = _get_real_wall_pos(x_rightinitial, y_initial + i * 32);
        }
        // draw bottom horizontal line of 'U'
        for (int i = 0; i < 3; i++){
 8000f80:	e0bfec17 	ldw	r2,-80(fp)
 8000f84:	10800044 	addi	r2,r2,1
 8000f88:	e0bfec15 	stw	r2,-80(fp)
 8000f8c:	e0bfec17 	ldw	r2,-80(fp)
 8000f90:	108000d0 	cmplti	r2,r2,3
 8000f94:	103fea1e 	bne	r2,zero,8000f40 <__alt_data_end+0xfc000f40>
            vga_ctrl->wall_pos[i + 12] = _get_real_wall_pos(x_bottomleft + i * 32, y_bottom);
        }
        break;
 8000f98:	0000f606 	br	8001374 <draw_wall+0x588>
    case 2:
        x_leftinitial = 272;
 8000f9c:	00804404 	movi	r2,272
 8000fa0:	e0bff715 	stw	r2,-36(fp)
        y_initial = 112;
 8000fa4:	00801c04 	movi	r2,112
 8000fa8:	e0bff815 	stw	r2,-32(fp)
        y_bottom = 336;
 8000fac:	00805404 	movi	r2,336
 8000fb0:	e0bffa15 	stw	r2,-24(fp)
        x_middle = 304;
 8000fb4:	00804c04 	movi	r2,304
 8000fb8:	e0bffc15 	stw	r2,-16(fp)
        y_up = 144;
 8000fbc:	00802404 	movi	r2,144
 8000fc0:	e0bffd15 	stw	r2,-12(fp)
        // draw the upper horizontal line
        for (int i = 0; i < 3; i++){
 8000fc4:	e03fed15 	stw	zero,-76(fp)
 8000fc8:	00001206 	br	8001014 <draw_wall+0x228>
            vga_ctrl->wall_pos[i] = _get_real_wall_pos(x_leftinitial + i * 32, y_initial);
 8000fcc:	d4200017 	ldw	r16,-32768(gp)
 8000fd0:	e0bfed17 	ldw	r2,-76(fp)
 8000fd4:	1006917a 	slli	r3,r2,5
 8000fd8:	e0bff717 	ldw	r2,-36(fp)
 8000fdc:	1885883a 	add	r2,r3,r2
 8000fe0:	e17ff817 	ldw	r5,-32(fp)
 8000fe4:	1009883a 	mov	r4,r2
 8000fe8:	8000a900 	call	8000a90 <_get_real_wall_pos>
 8000fec:	1007883a 	mov	r3,r2
 8000ff0:	e0bfed17 	ldw	r2,-76(fp)
 8000ff4:	108204c4 	addi	r2,r2,2067
 8000ff8:	1085883a 	add	r2,r2,r2
 8000ffc:	1085883a 	add	r2,r2,r2
 8001000:	8085883a 	add	r2,r16,r2
 8001004:	10c00015 	stw	r3,0(r2)
        y_initial = 112;
        y_bottom = 336;
        x_middle = 304;
        y_up = 144;
        // draw the upper horizontal line
        for (int i = 0; i < 3; i++){
 8001008:	e0bfed17 	ldw	r2,-76(fp)
 800100c:	10800044 	addi	r2,r2,1
 8001010:	e0bfed15 	stw	r2,-76(fp)
 8001014:	e0bfed17 	ldw	r2,-76(fp)
 8001018:	108000d0 	cmplti	r2,r2,3
 800101c:	103feb1e 	bne	r2,zero,8000fcc <__alt_data_end+0xfc000fcc>
            vga_ctrl->wall_pos[i] = _get_real_wall_pos(x_leftinitial + i * 32, y_initial);
        }
        // draw the lower horizontal line
        for (int i = 0; i < 3; i++){
 8001020:	e03fee15 	stw	zero,-72(fp)
 8001024:	00001306 	br	8001074 <draw_wall+0x288>
            vga_ctrl->wall_pos[i+3] = _get_real_wall_pos(x_leftinitial + i * 32, y_bottom);
 8001028:	d4200017 	ldw	r16,-32768(gp)
 800102c:	e0bfee17 	ldw	r2,-72(fp)
 8001030:	144000c4 	addi	r17,r2,3
 8001034:	e0bfee17 	ldw	r2,-72(fp)
 8001038:	1006917a 	slli	r3,r2,5
 800103c:	e0bff717 	ldw	r2,-36(fp)
 8001040:	1885883a 	add	r2,r3,r2
 8001044:	e17ffa17 	ldw	r5,-24(fp)
 8001048:	1009883a 	mov	r4,r2
 800104c:	8000a900 	call	8000a90 <_get_real_wall_pos>
 8001050:	1007883a 	mov	r3,r2
 8001054:	888204c4 	addi	r2,r17,2067
 8001058:	1085883a 	add	r2,r2,r2
 800105c:	1085883a 	add	r2,r2,r2
 8001060:	8085883a 	add	r2,r16,r2
 8001064:	10c00015 	stw	r3,0(r2)
        // draw the upper horizontal line
        for (int i = 0; i < 3; i++){
            vga_ctrl->wall_pos[i] = _get_real_wall_pos(x_leftinitial + i * 32, y_initial);
        }
        // draw the lower horizontal line
        for (int i = 0; i < 3; i++){
 8001068:	e0bfee17 	ldw	r2,-72(fp)
 800106c:	10800044 	addi	r2,r2,1
 8001070:	e0bfee15 	stw	r2,-72(fp)
 8001074:	e0bfee17 	ldw	r2,-72(fp)
 8001078:	108000d0 	cmplti	r2,r2,3
 800107c:	103fea1e 	bne	r2,zero,8001028 <__alt_data_end+0xfc001028>
            vga_ctrl->wall_pos[i+3] = _get_real_wall_pos(x_leftinitial + i * 32, y_bottom);
        }
        // draw the middel vertical line
        for (int i = 0; i < 6; i++){
 8001080:	e03fef15 	stw	zero,-68(fp)
 8001084:	00001306 	br	80010d4 <draw_wall+0x2e8>
            vga_ctrl->wall_pos[i+6] = _get_real_wall_pos(x_middle + i * 32, y_up);
 8001088:	d4200017 	ldw	r16,-32768(gp)
 800108c:	e0bfef17 	ldw	r2,-68(fp)
 8001090:	14400184 	addi	r17,r2,6
 8001094:	e0bfef17 	ldw	r2,-68(fp)
 8001098:	1006917a 	slli	r3,r2,5
 800109c:	e0bffc17 	ldw	r2,-16(fp)
 80010a0:	1885883a 	add	r2,r3,r2
 80010a4:	e17ffd17 	ldw	r5,-12(fp)
 80010a8:	1009883a 	mov	r4,r2
 80010ac:	8000a900 	call	8000a90 <_get_real_wall_pos>
 80010b0:	1007883a 	mov	r3,r2
 80010b4:	888204c4 	addi	r2,r17,2067
 80010b8:	1085883a 	add	r2,r2,r2
 80010bc:	1085883a 	add	r2,r2,r2
 80010c0:	8085883a 	add	r2,r16,r2
 80010c4:	10c00015 	stw	r3,0(r2)
        // draw the lower horizontal line
        for (int i = 0; i < 3; i++){
            vga_ctrl->wall_pos[i+3] = _get_real_wall_pos(x_leftinitial + i * 32, y_bottom);
        }
        // draw the middel vertical line
        for (int i = 0; i < 6; i++){
 80010c8:	e0bfef17 	ldw	r2,-68(fp)
 80010cc:	10800044 	addi	r2,r2,1
 80010d0:	e0bfef15 	stw	r2,-68(fp)
 80010d4:	e0bfef17 	ldw	r2,-68(fp)
 80010d8:	10800190 	cmplti	r2,r2,6
 80010dc:	103fea1e 	bne	r2,zero,8001088 <__alt_data_end+0xfc001088>
            vga_ctrl->wall_pos[i+6] = _get_real_wall_pos(x_middle + i * 32, y_up);
        }
        break;
 80010e0:	0000a406 	br	8001374 <draw_wall+0x588>
    case 4:
        x_middle = 272;
 80010e4:	00804404 	movi	r2,272
 80010e8:	e0bffc15 	stw	r2,-16(fp)
        y_up = 160;
 80010ec:	00802804 	movi	r2,160
 80010f0:	e0bffd15 	stw	r2,-12(fp)
        y_bottom = 288;
 80010f4:	00804804 	movi	r2,288
 80010f8:	e0bffa15 	stw	r2,-24(fp)
        x_leftinitial = 240;
 80010fc:	00803c04 	movi	r2,240
 8001100:	e0bff715 	stw	r2,-36(fp)
        // draw the upper horizontal line
        for (int i = 0; i < 4; i++){
 8001104:	e03ff015 	stw	zero,-64(fp)
 8001108:	00001206 	br	8001154 <draw_wall+0x368>
            vga_ctrl->wall_pos[i] = _get_real_wall_pos(x_middle + i * 32, y_up);
 800110c:	d4200017 	ldw	r16,-32768(gp)
 8001110:	e0bff017 	ldw	r2,-64(fp)
 8001114:	1006917a 	slli	r3,r2,5
 8001118:	e0bffc17 	ldw	r2,-16(fp)
 800111c:	1885883a 	add	r2,r3,r2
 8001120:	e17ffd17 	ldw	r5,-12(fp)
 8001124:	1009883a 	mov	r4,r2
 8001128:	8000a900 	call	8000a90 <_get_real_wall_pos>
 800112c:	1007883a 	mov	r3,r2
 8001130:	e0bff017 	ldw	r2,-64(fp)
 8001134:	108204c4 	addi	r2,r2,2067
 8001138:	1085883a 	add	r2,r2,r2
 800113c:	1085883a 	add	r2,r2,r2
 8001140:	8085883a 	add	r2,r16,r2
 8001144:	10c00015 	stw	r3,0(r2)
        x_middle = 272;
        y_up = 160;
        y_bottom = 288;
        x_leftinitial = 240;
        // draw the upper horizontal line
        for (int i = 0; i < 4; i++){
 8001148:	e0bff017 	ldw	r2,-64(fp)
 800114c:	10800044 	addi	r2,r2,1
 8001150:	e0bff015 	stw	r2,-64(fp)
 8001154:	e0bff017 	ldw	r2,-64(fp)
 8001158:	10800110 	cmplti	r2,r2,4
 800115c:	103feb1e 	bne	r2,zero,800110c <__alt_data_end+0xfc00110c>
            vga_ctrl->wall_pos[i] = _get_real_wall_pos(x_middle + i * 32, y_up);
        }
        // draw the lower horizontal line
        for (int i = 0; i < 4; i++){
 8001160:	e03ff115 	stw	zero,-60(fp)
 8001164:	00001306 	br	80011b4 <draw_wall+0x3c8>
            vga_ctrl->wall_pos[i+4] = _get_real_wall_pos(x_middle + i * 32, y_bottom);
 8001168:	d4200017 	ldw	r16,-32768(gp)
 800116c:	e0bff117 	ldw	r2,-60(fp)
 8001170:	14400104 	addi	r17,r2,4
 8001174:	e0bff117 	ldw	r2,-60(fp)
 8001178:	1006917a 	slli	r3,r2,5
 800117c:	e0bffc17 	ldw	r2,-16(fp)
 8001180:	1885883a 	add	r2,r3,r2
 8001184:	e17ffa17 	ldw	r5,-24(fp)
 8001188:	1009883a 	mov	r4,r2
 800118c:	8000a900 	call	8000a90 <_get_real_wall_pos>
 8001190:	1007883a 	mov	r3,r2
 8001194:	888204c4 	addi	r2,r17,2067
 8001198:	1085883a 	add	r2,r2,r2
 800119c:	1085883a 	add	r2,r2,r2
 80011a0:	8085883a 	add	r2,r16,r2
 80011a4:	10c00015 	stw	r3,0(r2)
        // draw the upper horizontal line
        for (int i = 0; i < 4; i++){
            vga_ctrl->wall_pos[i] = _get_real_wall_pos(x_middle + i * 32, y_up);
        }
        // draw the lower horizontal line
        for (int i = 0; i < 4; i++){
 80011a8:	e0bff117 	ldw	r2,-60(fp)
 80011ac:	10800044 	addi	r2,r2,1
 80011b0:	e0bff115 	stw	r2,-60(fp)
 80011b4:	e0bff117 	ldw	r2,-60(fp)
 80011b8:	10800110 	cmplti	r2,r2,4
 80011bc:	103fea1e 	bne	r2,zero,8001168 <__alt_data_end+0xfc001168>
            vga_ctrl->wall_pos[i+4] = _get_real_wall_pos(x_middle + i * 32, y_bottom);
        }
        // draw the left vertical line
        for (int i = 0; i < 5; i++){
 80011c0:	e03ff215 	stw	zero,-56(fp)
 80011c4:	00001306 	br	8001214 <draw_wall+0x428>
            vga_ctrl->wall_pos[i+8] = _get_real_wall_pos(x_leftinitial, y_up + i * 32);
 80011c8:	d4200017 	ldw	r16,-32768(gp)
 80011cc:	e0bff217 	ldw	r2,-56(fp)
 80011d0:	14400204 	addi	r17,r2,8
 80011d4:	e0bff217 	ldw	r2,-56(fp)
 80011d8:	1006917a 	slli	r3,r2,5
 80011dc:	e0bffd17 	ldw	r2,-12(fp)
 80011e0:	1885883a 	add	r2,r3,r2
 80011e4:	100b883a 	mov	r5,r2
 80011e8:	e13ff717 	ldw	r4,-36(fp)
 80011ec:	8000a900 	call	8000a90 <_get_real_wall_pos>
 80011f0:	1007883a 	mov	r3,r2
 80011f4:	888204c4 	addi	r2,r17,2067
 80011f8:	1085883a 	add	r2,r2,r2
 80011fc:	1085883a 	add	r2,r2,r2
 8001200:	8085883a 	add	r2,r16,r2
 8001204:	10c00015 	stw	r3,0(r2)
        // draw the lower horizontal line
        for (int i = 0; i < 4; i++){
            vga_ctrl->wall_pos[i+4] = _get_real_wall_pos(x_middle + i * 32, y_bottom);
        }
        // draw the left vertical line
        for (int i = 0; i < 5; i++){
 8001208:	e0bff217 	ldw	r2,-56(fp)
 800120c:	10800044 	addi	r2,r2,1
 8001210:	e0bff215 	stw	r2,-56(fp)
 8001214:	e0bff217 	ldw	r2,-56(fp)
 8001218:	10800150 	cmplti	r2,r2,5
 800121c:	103fea1e 	bne	r2,zero,80011c8 <__alt_data_end+0xfc0011c8>
            vga_ctrl->wall_pos[i+8] = _get_real_wall_pos(x_leftinitial, y_up + i * 32);
        }
        break;
 8001220:	00005406 	br	8001374 <draw_wall+0x588>
    default:
        x_leftinitial = 272;
 8001224:	00804404 	movi	r2,272
 8001228:	e0bff715 	stw	r2,-36(fp)
        y_initial = 112;
 800122c:	00801c04 	movi	r2,112
 8001230:	e0bff815 	stw	r2,-32(fp)
        y_bottom = 336;
 8001234:	00805404 	movi	r2,336
 8001238:	e0bffa15 	stw	r2,-24(fp)
        x_middle = 304;
 800123c:	00804c04 	movi	r2,304
 8001240:	e0bffc15 	stw	r2,-16(fp)
        y_up = 144;
 8001244:	00802404 	movi	r2,144
 8001248:	e0bffd15 	stw	r2,-12(fp)
        // draw the upper horizontal line
        for (int i = 0; i < 3; i++){
 800124c:	e03ff315 	stw	zero,-52(fp)
 8001250:	00001206 	br	800129c <draw_wall+0x4b0>
            vga_ctrl->wall_pos[i] = _get_real_wall_pos(x_leftinitial + i * 32, y_initial);
 8001254:	d4200017 	ldw	r16,-32768(gp)
 8001258:	e0bff317 	ldw	r2,-52(fp)
 800125c:	1006917a 	slli	r3,r2,5
 8001260:	e0bff717 	ldw	r2,-36(fp)
 8001264:	1885883a 	add	r2,r3,r2
 8001268:	e17ff817 	ldw	r5,-32(fp)
 800126c:	1009883a 	mov	r4,r2
 8001270:	8000a900 	call	8000a90 <_get_real_wall_pos>
 8001274:	1007883a 	mov	r3,r2
 8001278:	e0bff317 	ldw	r2,-52(fp)
 800127c:	108204c4 	addi	r2,r2,2067
 8001280:	1085883a 	add	r2,r2,r2
 8001284:	1085883a 	add	r2,r2,r2
 8001288:	8085883a 	add	r2,r16,r2
 800128c:	10c00015 	stw	r3,0(r2)
        y_initial = 112;
        y_bottom = 336;
        x_middle = 304;
        y_up = 144;
        // draw the upper horizontal line
        for (int i = 0; i < 3; i++){
 8001290:	e0bff317 	ldw	r2,-52(fp)
 8001294:	10800044 	addi	r2,r2,1
 8001298:	e0bff315 	stw	r2,-52(fp)
 800129c:	e0bff317 	ldw	r2,-52(fp)
 80012a0:	108000d0 	cmplti	r2,r2,3
 80012a4:	103feb1e 	bne	r2,zero,8001254 <__alt_data_end+0xfc001254>
            vga_ctrl->wall_pos[i] = _get_real_wall_pos(x_leftinitial + i * 32, y_initial);
        }
        // draw the lower horizontal line
        for (int i = 0; i < 3; i++){
 80012a8:	e03ff415 	stw	zero,-48(fp)
 80012ac:	00001306 	br	80012fc <draw_wall+0x510>
            vga_ctrl->wall_pos[i+3] = _get_real_wall_pos(x_leftinitial + i * 32, y_bottom);
 80012b0:	d4200017 	ldw	r16,-32768(gp)
 80012b4:	e0bff417 	ldw	r2,-48(fp)
 80012b8:	144000c4 	addi	r17,r2,3
 80012bc:	e0bff417 	ldw	r2,-48(fp)
 80012c0:	1006917a 	slli	r3,r2,5
 80012c4:	e0bff717 	ldw	r2,-36(fp)
 80012c8:	1885883a 	add	r2,r3,r2
 80012cc:	e17ffa17 	ldw	r5,-24(fp)
 80012d0:	1009883a 	mov	r4,r2
 80012d4:	8000a900 	call	8000a90 <_get_real_wall_pos>
 80012d8:	1007883a 	mov	r3,r2
 80012dc:	888204c4 	addi	r2,r17,2067
 80012e0:	1085883a 	add	r2,r2,r2
 80012e4:	1085883a 	add	r2,r2,r2
 80012e8:	8085883a 	add	r2,r16,r2
 80012ec:	10c00015 	stw	r3,0(r2)
        // draw the upper horizontal line
        for (int i = 0; i < 3; i++){
            vga_ctrl->wall_pos[i] = _get_real_wall_pos(x_leftinitial + i * 32, y_initial);
        }
        // draw the lower horizontal line
        for (int i = 0; i < 3; i++){
 80012f0:	e0bff417 	ldw	r2,-48(fp)
 80012f4:	10800044 	addi	r2,r2,1
 80012f8:	e0bff415 	stw	r2,-48(fp)
 80012fc:	e0bff417 	ldw	r2,-48(fp)
 8001300:	108000d0 	cmplti	r2,r2,3
 8001304:	103fea1e 	bne	r2,zero,80012b0 <__alt_data_end+0xfc0012b0>
            vga_ctrl->wall_pos[i+3] = _get_real_wall_pos(x_leftinitial + i * 32, y_bottom);
        }
        // draw the middel vertical line
        for (int i = 0; i < 6; i++){
 8001308:	e03ff515 	stw	zero,-44(fp)
 800130c:	00001306 	br	800135c <draw_wall+0x570>
            vga_ctrl->wall_pos[i+6] = _get_real_wall_pos(x_middle, y_up + i * 32);
 8001310:	d4200017 	ldw	r16,-32768(gp)
 8001314:	e0bff517 	ldw	r2,-44(fp)
 8001318:	14400184 	addi	r17,r2,6
 800131c:	e0bff517 	ldw	r2,-44(fp)
 8001320:	1006917a 	slli	r3,r2,5
 8001324:	e0bffd17 	ldw	r2,-12(fp)
 8001328:	1885883a 	add	r2,r3,r2
 800132c:	100b883a 	mov	r5,r2
 8001330:	e13ffc17 	ldw	r4,-16(fp)
 8001334:	8000a900 	call	8000a90 <_get_real_wall_pos>
 8001338:	1007883a 	mov	r3,r2
 800133c:	888204c4 	addi	r2,r17,2067
 8001340:	1085883a 	add	r2,r2,r2
 8001344:	1085883a 	add	r2,r2,r2
 8001348:	8085883a 	add	r2,r16,r2
 800134c:	10c00015 	stw	r3,0(r2)
        // draw the lower horizontal line
        for (int i = 0; i < 3; i++){
            vga_ctrl->wall_pos[i+3] = _get_real_wall_pos(x_leftinitial + i * 32, y_bottom);
        }
        // draw the middel vertical line
        for (int i = 0; i < 6; i++){
 8001350:	e0bff517 	ldw	r2,-44(fp)
 8001354:	10800044 	addi	r2,r2,1
 8001358:	e0bff515 	stw	r2,-44(fp)
 800135c:	e0bff517 	ldw	r2,-44(fp)
 8001360:	10800190 	cmplti	r2,r2,6
 8001364:	103fea1e 	bne	r2,zero,8001310 <__alt_data_end+0xfc001310>
            vga_ctrl->wall_pos[i+6] = _get_real_wall_pos(x_middle, y_up + i * 32);
        }
        break;
 8001368:	0001883a 	nop
 800136c:	00000106 	br	8001374 <draw_wall+0x588>
void draw_wall(void) {
    static wall_drawn = 0;
    int map_type = (vga_ctrl->game_attr >> 1) & 0xF;
    int x_leftinitial, y_initial, x_rightinitial, y_bottom, x_bottomleft;
    int x_middle, y_up;
    if(wall_drawn) return;
 8001370:	0001883a 	nop
        for (int i = 0; i < 6; i++){
            vga_ctrl->wall_pos[i+6] = _get_real_wall_pos(x_middle, y_up + i * 32);
        }
        break;
    }
}
 8001374:	e6fffe04 	addi	sp,fp,-8
 8001378:	dfc00317 	ldw	ra,12(sp)
 800137c:	df000217 	ldw	fp,8(sp)
 8001380:	dc400117 	ldw	r17,4(sp)
 8001384:	dc000017 	ldw	r16,0(sp)
 8001388:	dec00404 	addi	sp,sp,16
 800138c:	f800283a 	ret

08001390 <clear_except_score_panel>:

static void clear_except_score_panel(void) {
 8001390:	defff904 	addi	sp,sp,-28
 8001394:	dfc00615 	stw	ra,24(sp)
 8001398:	df000515 	stw	fp,20(sp)
 800139c:	dc800415 	stw	r18,16(sp)
 80013a0:	dc400315 	stw	r17,12(sp)
 80013a4:	dc000215 	stw	r16,8(sp)
 80013a8:	df000504 	addi	fp,sp,20
    int i, j;
    for(i = 0; i < TEXT_SCREEN_Y; i++) {
 80013ac:	e03ffb15 	stw	zero,-20(fp)
 80013b0:	00002e06 	br	800146c <clear_except_score_panel+0xdc>
        for(j = 0; j < TEXT_SCREEN_X; j++) {
 80013b4:	e03ffc15 	stw	zero,-16(fp)
 80013b8:	00002606 	br	8001454 <clear_except_score_panel+0xc4>
            if(j < SCORE_PANEL_X || j > SCORE_PANEL_X + SCORE_PANEL_WIDTH 
 80013bc:	e0bffc17 	ldw	r2,-16(fp)
 80013c0:	10800510 	cmplti	r2,r2,20
 80013c4:	1000091e 	bne	r2,zero,80013ec <clear_except_score_panel+0x5c>
 80013c8:	e0bffc17 	ldw	r2,-16(fp)
 80013cc:	10800f48 	cmpgei	r2,r2,61
 80013d0:	1000061e 	bne	r2,zero,80013ec <clear_except_score_panel+0x5c>
            || i < SCORE_PANEL_Y || i > SCORE_PANEL_Y + SCORE_PANEL_HEIGHT) {
 80013d4:	e0bffb17 	ldw	r2,-20(fp)
 80013d8:	10800150 	cmplti	r2,r2,5
 80013dc:	1000031e 	bne	r2,zero,80013ec <clear_except_score_panel+0x5c>
 80013e0:	e0bffb17 	ldw	r2,-20(fp)
 80013e4:	10800710 	cmplti	r2,r2,28
 80013e8:	1000171e 	bne	r2,zero,8001448 <clear_except_score_panel+0xb8>
                vga_ctrl->VRAM[(i * TEXT_SCREEN_X + j) * 2] = 
 80013ec:	d4200017 	ldw	r16,-32768(gp)
 80013f0:	01401404 	movi	r5,80
 80013f4:	e13ffb17 	ldw	r4,-20(fp)
 80013f8:	80059ac0 	call	80059ac <__mulsi3>
 80013fc:	1007883a 	mov	r3,r2
 8001400:	e0bffc17 	ldw	r2,-16(fp)
 8001404:	1885883a 	add	r2,r3,r2
 8001408:	1085883a 	add	r2,r2,r2
 800140c:	1025883a 	mov	r18,r2
                vga_ctrl->VRAM[(i * TEXT_SCREEN_X + j) * 2 + 1] = 0;
 8001410:	d4600017 	ldw	r17,-32768(gp)
 8001414:	01401404 	movi	r5,80
 8001418:	e13ffb17 	ldw	r4,-20(fp)
 800141c:	80059ac0 	call	80059ac <__mulsi3>
 8001420:	1007883a 	mov	r3,r2
 8001424:	e0bffc17 	ldw	r2,-16(fp)
 8001428:	1885883a 	add	r2,r3,r2
 800142c:	1085883a 	add	r2,r2,r2
 8001430:	10c00044 	addi	r3,r2,1
 8001434:	0005883a 	mov	r2,zero
 8001438:	88c7883a 	add	r3,r17,r3
 800143c:	18800005 	stb	r2,0(r3)
    int i, j;
    for(i = 0; i < TEXT_SCREEN_Y; i++) {
        for(j = 0; j < TEXT_SCREEN_X; j++) {
            if(j < SCORE_PANEL_X || j > SCORE_PANEL_X + SCORE_PANEL_WIDTH 
            || i < SCORE_PANEL_Y || i > SCORE_PANEL_Y + SCORE_PANEL_HEIGHT) {
                vga_ctrl->VRAM[(i * TEXT_SCREEN_X + j) * 2] = 
 8001440:	8487883a 	add	r3,r16,r18
 8001444:	18800005 	stb	r2,0(r3)
}

static void clear_except_score_panel(void) {
    int i, j;
    for(i = 0; i < TEXT_SCREEN_Y; i++) {
        for(j = 0; j < TEXT_SCREEN_X; j++) {
 8001448:	e0bffc17 	ldw	r2,-16(fp)
 800144c:	10800044 	addi	r2,r2,1
 8001450:	e0bffc15 	stw	r2,-16(fp)
 8001454:	e0bffc17 	ldw	r2,-16(fp)
 8001458:	10801410 	cmplti	r2,r2,80
 800145c:	103fd71e 	bne	r2,zero,80013bc <__alt_data_end+0xfc0013bc>
    }
}

static void clear_except_score_panel(void) {
    int i, j;
    for(i = 0; i < TEXT_SCREEN_Y; i++) {
 8001460:	e0bffb17 	ldw	r2,-20(fp)
 8001464:	10800044 	addi	r2,r2,1
 8001468:	e0bffb15 	stw	r2,-20(fp)
 800146c:	e0bffb17 	ldw	r2,-20(fp)
 8001470:	10800790 	cmplti	r2,r2,30
 8001474:	103fcf1e 	bne	r2,zero,80013b4 <__alt_data_end+0xfc0013b4>
                vga_ctrl->VRAM[(i * TEXT_SCREEN_X + j) * 2] = 
                vga_ctrl->VRAM[(i * TEXT_SCREEN_X + j) * 2 + 1] = 0;
            }
        }
    }
}
 8001478:	0001883a 	nop
 800147c:	e6fffd04 	addi	sp,fp,-12
 8001480:	dfc00417 	ldw	ra,16(sp)
 8001484:	df000317 	ldw	fp,12(sp)
 8001488:	dc800217 	ldw	r18,8(sp)
 800148c:	dc400117 	ldw	r17,4(sp)
 8001490:	dc000017 	ldw	r16,0(sp)
 8001494:	dec00504 	addi	sp,sp,20
 8001498:	f800283a 	ret

0800149c <draw_score_panel>:

void draw_score_panel(void) {
 800149c:	deffe504 	addi	sp,sp,-108
 80014a0:	dfc01a15 	stw	ra,104(sp)
 80014a4:	df001915 	stw	fp,100(sp)
 80014a8:	df001904 	addi	fp,sp,100
    char color_string[80];
    int y;
    clear_except_score_panel();
 80014ac:	80013900 	call	8001390 <clear_except_score_panel>
    y = SCORE_PANEL_Y;
 80014b0:	00800144 	movi	r2,5
 80014b4:	e0bfe815 	stw	r2,-96(fp)
    if(vga_ctrl->health[0] < 50 && vga_ctrl->health[0] > 0) {// player left wins,  display "WIN  LOSE" split string into 2 length 20 string, center WIN, LOSE respectively
 80014b8:	d0a00017 	ldw	r2,-32768(gp)
 80014bc:	10880d17 	ldw	r2,8244(r2)
 80014c0:	10800ca8 	cmpgeui	r2,r2,50
 80014c4:	1000381e 	bne	r2,zero,80015a8 <draw_score_panel+0x10c>
 80014c8:	d0a00017 	ldw	r2,-32768(gp)
 80014cc:	10880d17 	ldw	r2,8244(r2)
 80014d0:	10003526 	beq	r2,zero,80015a8 <draw_score_panel+0x10c>
        sprintf(color_string, "        WIN         ");
 80014d4:	e0bfec04 	addi	r2,fp,-80
 80014d8:	00c80834 	movhi	r3,8224
 80014dc:	18c80804 	addi	r3,r3,8224
 80014e0:	10c00015 	stw	r3,0(r2)
 80014e4:	00c80834 	movhi	r3,8224
 80014e8:	18c80804 	addi	r3,r3,8224
 80014ec:	10c00115 	stw	r3,4(r2)
 80014f0:	00c813b4 	movhi	r3,8270
 80014f4:	18d255c4 	addi	r3,r3,18775
 80014f8:	10c00215 	stw	r3,8(r2)
 80014fc:	00c80834 	movhi	r3,8224
 8001500:	18c80804 	addi	r3,r3,8224
 8001504:	10c00315 	stw	r3,12(r2)
 8001508:	00c80834 	movhi	r3,8224
 800150c:	18c80804 	addi	r3,r3,8224
 8001510:	10c00415 	stw	r3,16(r2)
 8001514:	10000505 	stb	zero,20(r2)
        textVGADrawColorText(color_string, SCORE_PANEL_X, y, PADDING_COLOR, WIN_COLOR);
 8001518:	e0ffec04 	addi	r3,fp,-80
 800151c:	00800104 	movi	r2,4
 8001520:	d8800015 	stw	r2,0(sp)
 8001524:	01c00184 	movi	r7,6
 8001528:	e1bfe817 	ldw	r6,-96(fp)
 800152c:	01400504 	movi	r5,20
 8001530:	1809883a 	mov	r4,r3
 8001534:	80032ec0 	call	80032ec <textVGADrawColorText>
        sprintf(color_string, "        LOSE        ");
 8001538:	e0bfec04 	addi	r2,fp,-80
 800153c:	00c80834 	movhi	r3,8224
 8001540:	18c80804 	addi	r3,r3,8224
 8001544:	10c00015 	stw	r3,0(r2)
 8001548:	00c80834 	movhi	r3,8224
 800154c:	18c80804 	addi	r3,r3,8224
 8001550:	10c00115 	stw	r3,4(r2)
 8001554:	00d154f4 	movhi	r3,17747
 8001558:	18d3d304 	addi	r3,r3,20300
 800155c:	10c00215 	stw	r3,8(r2)
 8001560:	00c80834 	movhi	r3,8224
 8001564:	18c80804 	addi	r3,r3,8224
 8001568:	10c00315 	stw	r3,12(r2)
 800156c:	00c80834 	movhi	r3,8224
 8001570:	18c80804 	addi	r3,r3,8224
 8001574:	10c00415 	stw	r3,16(r2)
 8001578:	10000505 	stb	zero,20(r2)
        textVGADrawColorText(color_string, SCORE_PANEL_X + 20, y++, PADDING_COLOR, FONT_COLOR);
 800157c:	e0bfe817 	ldw	r2,-96(fp)
 8001580:	10c00044 	addi	r3,r2,1
 8001584:	e0ffe815 	stw	r3,-96(fp)
 8001588:	e13fec04 	addi	r4,fp,-80
 800158c:	00c000c4 	movi	r3,3
 8001590:	d8c00015 	stw	r3,0(sp)
 8001594:	01c00184 	movi	r7,6
 8001598:	100d883a 	mov	r6,r2
 800159c:	01400a04 	movi	r5,40
 80015a0:	80032ec0 	call	80032ec <textVGADrawColorText>
 80015a4:	00003406 	br	8001678 <draw_score_panel+0x1dc>
    }
    else {// player right wins, display "LOSE  WIN"
        sprintf(color_string, "        LOSE        ");
 80015a8:	e0bfec04 	addi	r2,fp,-80
 80015ac:	00c80834 	movhi	r3,8224
 80015b0:	18c80804 	addi	r3,r3,8224
 80015b4:	10c00015 	stw	r3,0(r2)
 80015b8:	00c80834 	movhi	r3,8224
 80015bc:	18c80804 	addi	r3,r3,8224
 80015c0:	10c00115 	stw	r3,4(r2)
 80015c4:	00d154f4 	movhi	r3,17747
 80015c8:	18d3d304 	addi	r3,r3,20300
 80015cc:	10c00215 	stw	r3,8(r2)
 80015d0:	00c80834 	movhi	r3,8224
 80015d4:	18c80804 	addi	r3,r3,8224
 80015d8:	10c00315 	stw	r3,12(r2)
 80015dc:	00c80834 	movhi	r3,8224
 80015e0:	18c80804 	addi	r3,r3,8224
 80015e4:	10c00415 	stw	r3,16(r2)
 80015e8:	10000505 	stb	zero,20(r2)
        textVGADrawColorText(color_string, SCORE_PANEL_X, y, PADDING_COLOR, FONT_COLOR);
 80015ec:	e0ffec04 	addi	r3,fp,-80
 80015f0:	008000c4 	movi	r2,3
 80015f4:	d8800015 	stw	r2,0(sp)
 80015f8:	01c00184 	movi	r7,6
 80015fc:	e1bfe817 	ldw	r6,-96(fp)
 8001600:	01400504 	movi	r5,20
 8001604:	1809883a 	mov	r4,r3
 8001608:	80032ec0 	call	80032ec <textVGADrawColorText>
        sprintf(color_string, "        WIN         ");
 800160c:	e0bfec04 	addi	r2,fp,-80
 8001610:	00c80834 	movhi	r3,8224
 8001614:	18c80804 	addi	r3,r3,8224
 8001618:	10c00015 	stw	r3,0(r2)
 800161c:	00c80834 	movhi	r3,8224
 8001620:	18c80804 	addi	r3,r3,8224
 8001624:	10c00115 	stw	r3,4(r2)
 8001628:	00c813b4 	movhi	r3,8270
 800162c:	18d255c4 	addi	r3,r3,18775
 8001630:	10c00215 	stw	r3,8(r2)
 8001634:	00c80834 	movhi	r3,8224
 8001638:	18c80804 	addi	r3,r3,8224
 800163c:	10c00315 	stw	r3,12(r2)
 8001640:	00c80834 	movhi	r3,8224
 8001644:	18c80804 	addi	r3,r3,8224
 8001648:	10c00415 	stw	r3,16(r2)
 800164c:	10000505 	stb	zero,20(r2)
        textVGADrawColorText(color_string, SCORE_PANEL_X + 20, y++, PADDING_COLOR, WIN_COLOR);
 8001650:	e0bfe817 	ldw	r2,-96(fp)
 8001654:	10c00044 	addi	r3,r2,1
 8001658:	e0ffe815 	stw	r3,-96(fp)
 800165c:	e13fec04 	addi	r4,fp,-80
 8001660:	00c00104 	movi	r3,4
 8001664:	d8c00015 	stw	r3,0(sp)
 8001668:	01c00184 	movi	r7,6
 800166c:	100d883a 	mov	r6,r2
 8001670:	01400a04 	movi	r5,40
 8001674:	80032ec0 	call	80032ec <textVGADrawColorText>
    }
    // draw padding 1
    for(int i = 0; i < SCORE_PANEL_PADDING_1; i++) {
 8001678:	e03fe915 	stw	zero,-92(fp)
 800167c:	00002d06 	br	8001734 <draw_score_panel+0x298>
        sprintf(color_string, "                                        ");
 8001680:	e0bfec04 	addi	r2,fp,-80
 8001684:	00c80834 	movhi	r3,8224
 8001688:	18c80804 	addi	r3,r3,8224
 800168c:	10c00015 	stw	r3,0(r2)
 8001690:	00c80834 	movhi	r3,8224
 8001694:	18c80804 	addi	r3,r3,8224
 8001698:	10c00115 	stw	r3,4(r2)
 800169c:	00c80834 	movhi	r3,8224
 80016a0:	18c80804 	addi	r3,r3,8224
 80016a4:	10c00215 	stw	r3,8(r2)
 80016a8:	00c80834 	movhi	r3,8224
 80016ac:	18c80804 	addi	r3,r3,8224
 80016b0:	10c00315 	stw	r3,12(r2)
 80016b4:	00c80834 	movhi	r3,8224
 80016b8:	18c80804 	addi	r3,r3,8224
 80016bc:	10c00415 	stw	r3,16(r2)
 80016c0:	00c80834 	movhi	r3,8224
 80016c4:	18c80804 	addi	r3,r3,8224
 80016c8:	10c00515 	stw	r3,20(r2)
 80016cc:	00c80834 	movhi	r3,8224
 80016d0:	18c80804 	addi	r3,r3,8224
 80016d4:	10c00615 	stw	r3,24(r2)
 80016d8:	00c80834 	movhi	r3,8224
 80016dc:	18c80804 	addi	r3,r3,8224
 80016e0:	10c00715 	stw	r3,28(r2)
 80016e4:	00c80834 	movhi	r3,8224
 80016e8:	18c80804 	addi	r3,r3,8224
 80016ec:	10c00815 	stw	r3,32(r2)
 80016f0:	00c80834 	movhi	r3,8224
 80016f4:	18c80804 	addi	r3,r3,8224
 80016f8:	10c00915 	stw	r3,36(r2)
 80016fc:	10000a05 	stb	zero,40(r2)
        textVGADrawColorText(color_string, SCORE_PANEL_X, y++, PADDING_COLOR, PADDING_COLOR);
 8001700:	e0bfe817 	ldw	r2,-96(fp)
 8001704:	10c00044 	addi	r3,r2,1
 8001708:	e0ffe815 	stw	r3,-96(fp)
 800170c:	e13fec04 	addi	r4,fp,-80
 8001710:	00c00184 	movi	r3,6
 8001714:	d8c00015 	stw	r3,0(sp)
 8001718:	01c00184 	movi	r7,6
 800171c:	100d883a 	mov	r6,r2
 8001720:	01400504 	movi	r5,20
 8001724:	80032ec0 	call	80032ec <textVGADrawColorText>
        textVGADrawColorText(color_string, SCORE_PANEL_X, y, PADDING_COLOR, FONT_COLOR);
        sprintf(color_string, "        WIN         ");
        textVGADrawColorText(color_string, SCORE_PANEL_X + 20, y++, PADDING_COLOR, WIN_COLOR);
    }
    // draw padding 1
    for(int i = 0; i < SCORE_PANEL_PADDING_1; i++) {
 8001728:	e0bfe917 	ldw	r2,-92(fp)
 800172c:	10800044 	addi	r2,r2,1
 8001730:	e0bfe915 	stw	r2,-92(fp)
 8001734:	e0bfe917 	ldw	r2,-92(fp)
 8001738:	10800190 	cmplti	r2,r2,6
 800173c:	103fd01e 	bne	r2,zero,8001680 <__alt_data_end+0xfc001680>
        sprintf(color_string, "                                        ");
        textVGADrawColorText(color_string, SCORE_PANEL_X, y++, PADDING_COLOR, PADDING_COLOR);
    }
    // draw the score
    
    sprintf(color_string, "     SCORE: %03lu     ", vga_ctrl->score[0]);
 8001740:	d0a00017 	ldw	r2,-32768(gp)
 8001744:	10c80f17 	ldw	r3,8252(r2)
 8001748:	e0bfec04 	addi	r2,fp,-80
 800174c:	180d883a 	mov	r6,r3
 8001750:	014200b4 	movhi	r5,2050
 8001754:	296ba304 	addi	r5,r5,-20852
 8001758:	1009883a 	mov	r4,r2
 800175c:	8005d500 	call	8005d50 <sprintf>
    textVGADrawColorText(color_string, SCORE_PANEL_X, y, PADDING_COLOR, FONT_COLOR);
 8001760:	e0ffec04 	addi	r3,fp,-80
 8001764:	008000c4 	movi	r2,3
 8001768:	d8800015 	stw	r2,0(sp)
 800176c:	01c00184 	movi	r7,6
 8001770:	e1bfe817 	ldw	r6,-96(fp)
 8001774:	01400504 	movi	r5,20
 8001778:	1809883a 	mov	r4,r3
 800177c:	80032ec0 	call	80032ec <textVGADrawColorText>
    sprintf(color_string, "     SCORE: %03lu     ", vga_ctrl->score[1]);
 8001780:	d0a00017 	ldw	r2,-32768(gp)
 8001784:	10c81017 	ldw	r3,8256(r2)
 8001788:	e0bfec04 	addi	r2,fp,-80
 800178c:	180d883a 	mov	r6,r3
 8001790:	014200b4 	movhi	r5,2050
 8001794:	296ba304 	addi	r5,r5,-20852
 8001798:	1009883a 	mov	r4,r2
 800179c:	8005d500 	call	8005d50 <sprintf>
    textVGADrawColorText(color_string, SCORE_PANEL_X + 20, y++, PADDING_COLOR, FONT_COLOR);
 80017a0:	e0bfe817 	ldw	r2,-96(fp)
 80017a4:	10c00044 	addi	r3,r2,1
 80017a8:	e0ffe815 	stw	r3,-96(fp)
 80017ac:	e13fec04 	addi	r4,fp,-80
 80017b0:	00c000c4 	movi	r3,3
 80017b4:	d8c00015 	stw	r3,0(sp)
 80017b8:	01c00184 	movi	r7,6
 80017bc:	100d883a 	mov	r6,r2
 80017c0:	01400a04 	movi	r5,40
 80017c4:	80032ec0 	call	80032ec <textVGADrawColorText>

    // draw padding 2
    for(int i = 0; i < SCORE_PANEL_PADDING_2; i++) {
 80017c8:	e03fea15 	stw	zero,-88(fp)
 80017cc:	00002d06 	br	8001884 <draw_score_panel+0x3e8>
        sprintf(color_string, "                                        ");
 80017d0:	e0bfec04 	addi	r2,fp,-80
 80017d4:	00c80834 	movhi	r3,8224
 80017d8:	18c80804 	addi	r3,r3,8224
 80017dc:	10c00015 	stw	r3,0(r2)
 80017e0:	00c80834 	movhi	r3,8224
 80017e4:	18c80804 	addi	r3,r3,8224
 80017e8:	10c00115 	stw	r3,4(r2)
 80017ec:	00c80834 	movhi	r3,8224
 80017f0:	18c80804 	addi	r3,r3,8224
 80017f4:	10c00215 	stw	r3,8(r2)
 80017f8:	00c80834 	movhi	r3,8224
 80017fc:	18c80804 	addi	r3,r3,8224
 8001800:	10c00315 	stw	r3,12(r2)
 8001804:	00c80834 	movhi	r3,8224
 8001808:	18c80804 	addi	r3,r3,8224
 800180c:	10c00415 	stw	r3,16(r2)
 8001810:	00c80834 	movhi	r3,8224
 8001814:	18c80804 	addi	r3,r3,8224
 8001818:	10c00515 	stw	r3,20(r2)
 800181c:	00c80834 	movhi	r3,8224
 8001820:	18c80804 	addi	r3,r3,8224
 8001824:	10c00615 	stw	r3,24(r2)
 8001828:	00c80834 	movhi	r3,8224
 800182c:	18c80804 	addi	r3,r3,8224
 8001830:	10c00715 	stw	r3,28(r2)
 8001834:	00c80834 	movhi	r3,8224
 8001838:	18c80804 	addi	r3,r3,8224
 800183c:	10c00815 	stw	r3,32(r2)
 8001840:	00c80834 	movhi	r3,8224
 8001844:	18c80804 	addi	r3,r3,8224
 8001848:	10c00915 	stw	r3,36(r2)
 800184c:	10000a05 	stb	zero,40(r2)
        textVGADrawColorText(color_string, SCORE_PANEL_X, y++, PADDING_COLOR, PADDING_COLOR);
 8001850:	e0bfe817 	ldw	r2,-96(fp)
 8001854:	10c00044 	addi	r3,r2,1
 8001858:	e0ffe815 	stw	r3,-96(fp)
 800185c:	e13fec04 	addi	r4,fp,-80
 8001860:	00c00184 	movi	r3,6
 8001864:	d8c00015 	stw	r3,0(sp)
 8001868:	01c00184 	movi	r7,6
 800186c:	100d883a 	mov	r6,r2
 8001870:	01400504 	movi	r5,20
 8001874:	80032ec0 	call	80032ec <textVGADrawColorText>
    textVGADrawColorText(color_string, SCORE_PANEL_X, y, PADDING_COLOR, FONT_COLOR);
    sprintf(color_string, "     SCORE: %03lu     ", vga_ctrl->score[1]);
    textVGADrawColorText(color_string, SCORE_PANEL_X + 20, y++, PADDING_COLOR, FONT_COLOR);

    // draw padding 2
    for(int i = 0; i < SCORE_PANEL_PADDING_2; i++) {
 8001878:	e0bfea17 	ldw	r2,-88(fp)
 800187c:	10800044 	addi	r2,r2,1
 8001880:	e0bfea15 	stw	r2,-88(fp)
 8001884:	e0bfea17 	ldw	r2,-88(fp)
 8001888:	10800090 	cmplti	r2,r2,2
 800188c:	103fd01e 	bne	r2,zero,80017d0 <__alt_data_end+0xfc0017d0>
        sprintf(color_string, "                                        ");
        textVGADrawColorText(color_string, SCORE_PANEL_X, y++, PADDING_COLOR, PADDING_COLOR);
    }

    // draw the health
    sprintf(color_string, "     HEALTH:  %01lu     ", vga_ctrl->health[0] > 50 ? 0 : vga_ctrl->health[0]);
 8001890:	d0a00017 	ldw	r2,-32768(gp)
 8001894:	10880d17 	ldw	r2,8244(r2)
 8001898:	10800ce8 	cmpgeui	r2,r2,51
 800189c:	1000031e 	bne	r2,zero,80018ac <draw_score_panel+0x410>
 80018a0:	d0a00017 	ldw	r2,-32768(gp)
 80018a4:	10880d17 	ldw	r2,8244(r2)
 80018a8:	00000106 	br	80018b0 <draw_score_panel+0x414>
 80018ac:	0005883a 	mov	r2,zero
 80018b0:	e0ffec04 	addi	r3,fp,-80
 80018b4:	100d883a 	mov	r6,r2
 80018b8:	014200b4 	movhi	r5,2050
 80018bc:	296ba904 	addi	r5,r5,-20828
 80018c0:	1809883a 	mov	r4,r3
 80018c4:	8005d500 	call	8005d50 <sprintf>
    textVGADrawColorText(color_string, SCORE_PANEL_X, y, PADDING_COLOR, FONT_COLOR);
 80018c8:	e0ffec04 	addi	r3,fp,-80
 80018cc:	008000c4 	movi	r2,3
 80018d0:	d8800015 	stw	r2,0(sp)
 80018d4:	01c00184 	movi	r7,6
 80018d8:	e1bfe817 	ldw	r6,-96(fp)
 80018dc:	01400504 	movi	r5,20
 80018e0:	1809883a 	mov	r4,r3
 80018e4:	80032ec0 	call	80032ec <textVGADrawColorText>
    sprintf(color_string, "     HEALTH:  %01lu     ", vga_ctrl->health[1] > 50 ? 0 : vga_ctrl->health[1]);
 80018e8:	d0a00017 	ldw	r2,-32768(gp)
 80018ec:	10880e17 	ldw	r2,8248(r2)
 80018f0:	10800ce8 	cmpgeui	r2,r2,51
 80018f4:	1000031e 	bne	r2,zero,8001904 <draw_score_panel+0x468>
 80018f8:	d0a00017 	ldw	r2,-32768(gp)
 80018fc:	10880e17 	ldw	r2,8248(r2)
 8001900:	00000106 	br	8001908 <draw_score_panel+0x46c>
 8001904:	0005883a 	mov	r2,zero
 8001908:	e0ffec04 	addi	r3,fp,-80
 800190c:	100d883a 	mov	r6,r2
 8001910:	014200b4 	movhi	r5,2050
 8001914:	296ba904 	addi	r5,r5,-20828
 8001918:	1809883a 	mov	r4,r3
 800191c:	8005d500 	call	8005d50 <sprintf>
    textVGADrawColorText(color_string, SCORE_PANEL_X + 20, y++, PADDING_COLOR, FONT_COLOR);
 8001920:	e0bfe817 	ldw	r2,-96(fp)
 8001924:	10c00044 	addi	r3,r2,1
 8001928:	e0ffe815 	stw	r3,-96(fp)
 800192c:	e13fec04 	addi	r4,fp,-80
 8001930:	00c000c4 	movi	r3,3
 8001934:	d8c00015 	stw	r3,0(sp)
 8001938:	01c00184 	movi	r7,6
 800193c:	100d883a 	mov	r6,r2
 8001940:	01400a04 	movi	r5,40
 8001944:	80032ec0 	call	80032ec <textVGADrawColorText>
    
    // draw padding 3
    for(int i = 0; i < SCORE_PANEL_Y + SCORE_PANEL_HEIGHT - y; i++) {
 8001948:	e03feb15 	stw	zero,-84(fp)
 800194c:	00002d06 	br	8001a04 <draw_score_panel+0x568>
        sprintf(color_string, "                                        ");
 8001950:	e0bfec04 	addi	r2,fp,-80
 8001954:	00c80834 	movhi	r3,8224
 8001958:	18c80804 	addi	r3,r3,8224
 800195c:	10c00015 	stw	r3,0(r2)
 8001960:	00c80834 	movhi	r3,8224
 8001964:	18c80804 	addi	r3,r3,8224
 8001968:	10c00115 	stw	r3,4(r2)
 800196c:	00c80834 	movhi	r3,8224
 8001970:	18c80804 	addi	r3,r3,8224
 8001974:	10c00215 	stw	r3,8(r2)
 8001978:	00c80834 	movhi	r3,8224
 800197c:	18c80804 	addi	r3,r3,8224
 8001980:	10c00315 	stw	r3,12(r2)
 8001984:	00c80834 	movhi	r3,8224
 8001988:	18c80804 	addi	r3,r3,8224
 800198c:	10c00415 	stw	r3,16(r2)
 8001990:	00c80834 	movhi	r3,8224
 8001994:	18c80804 	addi	r3,r3,8224
 8001998:	10c00515 	stw	r3,20(r2)
 800199c:	00c80834 	movhi	r3,8224
 80019a0:	18c80804 	addi	r3,r3,8224
 80019a4:	10c00615 	stw	r3,24(r2)
 80019a8:	00c80834 	movhi	r3,8224
 80019ac:	18c80804 	addi	r3,r3,8224
 80019b0:	10c00715 	stw	r3,28(r2)
 80019b4:	00c80834 	movhi	r3,8224
 80019b8:	18c80804 	addi	r3,r3,8224
 80019bc:	10c00815 	stw	r3,32(r2)
 80019c0:	00c80834 	movhi	r3,8224
 80019c4:	18c80804 	addi	r3,r3,8224
 80019c8:	10c00915 	stw	r3,36(r2)
 80019cc:	10000a05 	stb	zero,40(r2)
        textVGADrawColorText(color_string, SCORE_PANEL_X, y++, PADDING_COLOR, PADDING_COLOR);
 80019d0:	e0bfe817 	ldw	r2,-96(fp)
 80019d4:	10c00044 	addi	r3,r2,1
 80019d8:	e0ffe815 	stw	r3,-96(fp)
 80019dc:	e13fec04 	addi	r4,fp,-80
 80019e0:	00c00184 	movi	r3,6
 80019e4:	d8c00015 	stw	r3,0(sp)
 80019e8:	01c00184 	movi	r7,6
 80019ec:	100d883a 	mov	r6,r2
 80019f0:	01400504 	movi	r5,20
 80019f4:	80032ec0 	call	80032ec <textVGADrawColorText>
    textVGADrawColorText(color_string, SCORE_PANEL_X, y, PADDING_COLOR, FONT_COLOR);
    sprintf(color_string, "     HEALTH:  %01lu     ", vga_ctrl->health[1] > 50 ? 0 : vga_ctrl->health[1]);
    textVGADrawColorText(color_string, SCORE_PANEL_X + 20, y++, PADDING_COLOR, FONT_COLOR);
    
    // draw padding 3
    for(int i = 0; i < SCORE_PANEL_Y + SCORE_PANEL_HEIGHT - y; i++) {
 80019f8:	e0bfeb17 	ldw	r2,-84(fp)
 80019fc:	10800044 	addi	r2,r2,1
 8001a00:	e0bfeb15 	stw	r2,-84(fp)
 8001a04:	00c006c4 	movi	r3,27
 8001a08:	e0bfe817 	ldw	r2,-96(fp)
 8001a0c:	1885c83a 	sub	r2,r3,r2
 8001a10:	e0ffeb17 	ldw	r3,-84(fp)
 8001a14:	18bfce16 	blt	r3,r2,8001950 <__alt_data_end+0xfc001950>
        sprintf(color_string, "                                        ");
        textVGADrawColorText(color_string, SCORE_PANEL_X, y++, PADDING_COLOR, PADDING_COLOR);
    }
}
 8001a18:	0001883a 	nop
 8001a1c:	e037883a 	mov	sp,fp
 8001a20:	dfc00117 	ldw	ra,4(sp)
 8001a24:	df000017 	ldw	fp,0(sp)
 8001a28:	dec00204 	addi	sp,sp,8
 8001a2c:	f800283a 	ret

08001a30 <menu_control>:
/**
 * @brief take at most four @param key0 @param key1 @param key2 @param key3 keys and handle the menu
 * @note currently only enter will work
 * @todo add logics for map and settings
 */
void menu_control(char* key) {
 8001a30:	defffc04 	addi	sp,sp,-16
 8001a34:	dfc00315 	stw	ra,12(sp)
 8001a38:	df000215 	stw	fp,8(sp)
 8001a3c:	df000204 	addi	fp,sp,8
 8001a40:	e13fff15 	stw	r4,-4(fp)
    int i;
    if (key[0] == last_key)
 8001a44:	e0bfff17 	ldw	r2,-4(fp)
 8001a48:	10c00003 	ldbu	r3,0(r2)
 8001a4c:	d0a82003 	ldbu	r2,-24448(gp)
 8001a50:	18c03fcc 	andi	r3,r3,255
 8001a54:	18c0201c 	xori	r3,r3,128
 8001a58:	18ffe004 	addi	r3,r3,-128
 8001a5c:	10803fcc 	andi	r2,r2,255
 8001a60:	1080201c 	xori	r2,r2,128
 8001a64:	10bfe004 	addi	r2,r2,-128
 8001a68:	1880ec26 	beq	r3,r2,8001e1c <menu_control+0x3ec>
        return ;
    else
        last_key = key[0];
 8001a6c:	e0bfff17 	ldw	r2,-4(fp)
 8001a70:	10800003 	ldbu	r2,0(r2)
 8001a74:	d0a82005 	stb	r2,-24448(gp)
    printf("menu state: %d\n", menu_state);
 8001a78:	d0a81f17 	ldw	r2,-24452(gp)
 8001a7c:	100b883a 	mov	r5,r2
 8001a80:	010200b4 	movhi	r4,2050
 8001a84:	212bb004 	addi	r4,r4,-20800
 8001a88:	8005b4c0 	call	8005b4c <printf>
	printf("game attr: %x\n", vga_ctrl->game_attr);
 8001a8c:	d0a00017 	ldw	r2,-32768(gp)
 8001a90:	10880917 	ldw	r2,8228(r2)
 8001a94:	100b883a 	mov	r5,r2
 8001a98:	010200b4 	movhi	r4,2050
 8001a9c:	212bb404 	addi	r4,r4,-20784
 8001aa0:	8005b4c0 	call	8005b4c <printf>
    for(i = 0; i < 1; i++) {
 8001aa4:	e03ffe15 	stw	zero,-8(fp)
 8001aa8:	0000d906 	br	8001e10 <menu_control+0x3e0>
        switch (menu_state){
 8001aac:	d0a81f17 	ldw	r2,-24452(gp)
 8001ab0:	10c001a8 	cmpgeui	r3,r2,6
 8001ab4:	1800cf1e 	bne	r3,zero,8001df4 <menu_control+0x3c4>
 8001ab8:	100690ba 	slli	r3,r2,2
 8001abc:	00820034 	movhi	r2,2048
 8001ac0:	1086b404 	addi	r2,r2,6864
 8001ac4:	1885883a 	add	r2,r3,r2
 8001ac8:	10800017 	ldw	r2,0(r2)
 8001acc:	1000683a 	jmp	r2
 8001ad0:	08001ae8 	cmpgeui	zero,at,107
 8001ad4:	08001b64 	muli	zero,at,109
 8001ad8:	08001bf0 	cmpltui	zero,at,111
 8001adc:	08001c40 	call	8001c4 <__alt_mem_onchip_memory2_0+0x8001c4>
 8001ae0:	08001cc8 	cmpgei	zero,at,115
 8001ae4:	08001d6c 	andhi	zero,at,117
        case 0:
            switch (key[i]) {
 8001ae8:	e0bffe17 	ldw	r2,-8(fp)
 8001aec:	e0ffff17 	ldw	r3,-4(fp)
 8001af0:	1885883a 	add	r2,r3,r2
 8001af4:	10800003 	ldbu	r2,0(r2)
 8001af8:	10803fcc 	andi	r2,r2,255
 8001afc:	1080201c 	xori	r2,r2,128
 8001b00:	10bfe004 	addi	r2,r2,-128
 8001b04:	10c00a20 	cmpeqi	r3,r2,40
 8001b08:	1800031e 	bne	r3,zero,8001b18 <menu_control+0xe8>
 8001b0c:	10801460 	cmpeqi	r2,r2,81
 8001b10:	1000091e 	bne	r2,zero,8001b38 <menu_control+0x108>
 8001b14:	00000e06 	br	8001b50 <menu_control+0x120>
            case 40: // enter
                // set the game bit 1 to start the game
                // clear the VRAM
                text_VGA_init();
 8001b18:	80035c80 	call	80035c8 <text_VGA_init>
                // draw the draw_status_bars
                draw_status_bars();
 8001b1c:	80008680 	call	8000868 <draw_status_bars>

                // game_init();
                vga_ctrl->game_attr |= SET_GAME_ATTR_START(1);
 8001b20:	d0a00017 	ldw	r2,-32768(gp)
 8001b24:	d0e00017 	ldw	r3,-32768(gp)
 8001b28:	18c80917 	ldw	r3,8228(r3)
 8001b2c:	18c00054 	ori	r3,r3,1
 8001b30:	10c80915 	stw	r3,8228(r2)
                break;
 8001b34:	00000a06 	br	8001b60 <menu_control+0x130>
            case 81: // down
                // redraw the menu
                // show the high light on map
                // change the game status
                menu_state = 1;
 8001b38:	00800044 	movi	r2,1
 8001b3c:	d0a81f15 	stw	r2,-24452(gp)
                show_menu(MAP, 0);
 8001b40:	000b883a 	mov	r5,zero
 8001b44:	01000084 	movi	r4,2
 8001b48:	80003f40 	call	80003f4 <show_menu>
                break;
 8001b4c:	00000406 	br	8001b60 <menu_control+0x130>

            default:
                printf("oops, unknown key pressed for menu\n");
 8001b50:	010200b4 	movhi	r4,2050
 8001b54:	212bb804 	addi	r4,r4,-20768
 8001b58:	8005c680 	call	8005c68 <puts>
                break;
 8001b5c:	0001883a 	nop
            }
            break;
 8001b60:	0000a806 	br	8001e04 <menu_control+0x3d4>
        // wait to choose map
        case 1: 
            switch (key[i]) {
 8001b64:	e0bffe17 	ldw	r2,-8(fp)
 8001b68:	e0ffff17 	ldw	r3,-4(fp)
 8001b6c:	1885883a 	add	r2,r3,r2
 8001b70:	10800003 	ldbu	r2,0(r2)
 8001b74:	10803fcc 	andi	r2,r2,255
 8001b78:	1080201c 	xori	r2,r2,128
 8001b7c:	10bfe004 	addi	r2,r2,-128
 8001b80:	10c01460 	cmpeqi	r3,r2,81
 8001b84:	18000a1e 	bne	r3,zero,8001bb0 <menu_control+0x180>
 8001b88:	10c014a0 	cmpeqi	r3,r2,82
 8001b8c:	18000e1e 	bne	r3,zero,8001bc8 <menu_control+0x198>
 8001b90:	10800a20 	cmpeqi	r2,r2,40
 8001b94:	10001126 	beq	r2,zero,8001bdc <menu_control+0x1ac>
            case 40: // enter
                // flip the wait to choose bit
                show_menu(1, 1);
 8001b98:	01400044 	movi	r5,1
 8001b9c:	01000044 	movi	r4,1
 8001ba0:	80003f40 	call	80003f4 <show_menu>
                menu_state = 3;
 8001ba4:	008000c4 	movi	r2,3
 8001ba8:	d0a81f15 	stw	r2,-24452(gp)
                break;
 8001bac:	00000f06 	br	8001bec <menu_control+0x1bc>
            case 81: // down
                // redraw the menu
                // show the high light on setting
                // change the game status
                show_menu(SETTING, 0);
 8001bb0:	000b883a 	mov	r5,zero
 8001bb4:	010000c4 	movi	r4,3
 8001bb8:	80003f40 	call	80003f4 <show_menu>
                menu_state = 2;
 8001bbc:	00800084 	movi	r2,2
 8001bc0:	d0a81f15 	stw	r2,-24452(gp)
                break;
 8001bc4:	00000906 	br	8001bec <menu_control+0x1bc>

            case 82: // up
                // redraw the menu
                // show the high light on start
                // change the game status
                show_menu(START, 0);
 8001bc8:	000b883a 	mov	r5,zero
 8001bcc:	01000044 	movi	r4,1
 8001bd0:	80003f40 	call	80003f4 <show_menu>
                menu_state = 0;
 8001bd4:	d0281f15 	stw	zero,-24452(gp)
                break;
 8001bd8:	00000406 	br	8001bec <menu_control+0x1bc>
            default:
                printf("oops, unknown key pressed for menu\n");
 8001bdc:	010200b4 	movhi	r4,2050
 8001be0:	212bb804 	addi	r4,r4,-20768
 8001be4:	8005c680 	call	8005c68 <puts>
                break;
 8001be8:	0001883a 	nop
            }
            break;
 8001bec:	00008506 	br	8001e04 <menu_control+0x3d4>

        case 2:
            switch (key[i]) {
 8001bf0:	e0bffe17 	ldw	r2,-8(fp)
 8001bf4:	e0ffff17 	ldw	r3,-4(fp)
 8001bf8:	1885883a 	add	r2,r3,r2
 8001bfc:	10800003 	ldbu	r2,0(r2)
 8001c00:	10803fcc 	andi	r2,r2,255
 8001c04:	1080201c 	xori	r2,r2,128
 8001c08:	10bfe004 	addi	r2,r2,-128
 8001c0c:	108014a0 	cmpeqi	r2,r2,82
 8001c10:	10000626 	beq	r2,zero,8001c2c <menu_control+0x1fc>
            //     break;
            case 82: // up
                // redraw the menu
                // show the high light on map
                // change the game status
                show_menu(MAP, 0);
 8001c14:	000b883a 	mov	r5,zero
 8001c18:	01000084 	movi	r4,2
 8001c1c:	80003f40 	call	80003f4 <show_menu>
                menu_state = 1;
 8001c20:	00800044 	movi	r2,1
 8001c24:	d0a81f15 	stw	r2,-24452(gp)
                break;
 8001c28:	00000406 	br	8001c3c <menu_control+0x20c>
            default:
                printf("oops, unknown key pressed for menu\n");
 8001c2c:	010200b4 	movhi	r4,2050
 8001c30:	212bb804 	addi	r4,r4,-20768
 8001c34:	8005c680 	call	8005c68 <puts>
                break;
 8001c38:	0001883a 	nop
            }
            break;
 8001c3c:	00007106 	br	8001e04 <menu_control+0x3d4>
        case 3:
            switch (key[i]) {
 8001c40:	e0bffe17 	ldw	r2,-8(fp)
 8001c44:	e0ffff17 	ldw	r3,-4(fp)
 8001c48:	1885883a 	add	r2,r3,r2
 8001c4c:	10800003 	ldbu	r2,0(r2)
 8001c50:	10803fcc 	andi	r2,r2,255
 8001c54:	1080201c 	xori	r2,r2,128
 8001c58:	10bfe004 	addi	r2,r2,-128
 8001c5c:	10c00a20 	cmpeqi	r3,r2,40
 8001c60:	1800031e 	bne	r3,zero,8001c70 <menu_control+0x240>
 8001c64:	10801460 	cmpeqi	r2,r2,81
 8001c68:	10000c1e 	bne	r2,zero,8001c9c <menu_control+0x26c>
 8001c6c:	00001106 	br	8001cb4 <menu_control+0x284>
            case 40: // enter
                menu_state = 1;
 8001c70:	00800044 	movi	r2,1
 8001c74:	d0a81f15 	stw	r2,-24452(gp)
                // vga_ctrl->game_attr &= 0xFFE1;
                vga_ctrl->game_attr = vga_ctrl->game_attr | 2;
 8001c78:	d0a00017 	ldw	r2,-32768(gp)
 8001c7c:	d0e00017 	ldw	r3,-32768(gp)
 8001c80:	18c80917 	ldw	r3,8228(r3)
 8001c84:	18c00094 	ori	r3,r3,2
 8001c88:	10c80915 	stw	r3,8228(r2)
                show_menu(MAP, 0);
 8001c8c:	000b883a 	mov	r5,zero
 8001c90:	01000084 	movi	r4,2
 8001c94:	80003f40 	call	80003f4 <show_menu>
                break;
 8001c98:	00000a06 	br	8001cc4 <menu_control+0x294>
            case 81: // down
                // redraw the menu
                // show the high light on map
                // change the game status
                menu_state = 4;
 8001c9c:	00800104 	movi	r2,4
 8001ca0:	d0a81f15 	stw	r2,-24452(gp)
                show_menu(2, 1);
 8001ca4:	01400044 	movi	r5,1
 8001ca8:	01000084 	movi	r4,2
 8001cac:	80003f40 	call	80003f4 <show_menu>
                break;
 8001cb0:	00000406 	br	8001cc4 <menu_control+0x294>

            default:
                printf("oops, unknown key pressed for menu\n");
 8001cb4:	010200b4 	movhi	r4,2050
 8001cb8:	212bb804 	addi	r4,r4,-20768
 8001cbc:	8005c680 	call	8005c68 <puts>
                break;
 8001cc0:	0001883a 	nop
            }
            break;
 8001cc4:	00004f06 	br	8001e04 <menu_control+0x3d4>
        case 4:
            switch (key[i]) {
 8001cc8:	e0bffe17 	ldw	r2,-8(fp)
 8001ccc:	e0ffff17 	ldw	r3,-4(fp)
 8001cd0:	1885883a 	add	r2,r3,r2
 8001cd4:	10800003 	ldbu	r2,0(r2)
 8001cd8:	10803fcc 	andi	r2,r2,255
 8001cdc:	1080201c 	xori	r2,r2,128
 8001ce0:	10bfe004 	addi	r2,r2,-128
 8001ce4:	10c01460 	cmpeqi	r3,r2,81
 8001ce8:	18000f1e 	bne	r3,zero,8001d28 <menu_control+0x2f8>
 8001cec:	10c014a0 	cmpeqi	r3,r2,82
 8001cf0:	1800131e 	bne	r3,zero,8001d40 <menu_control+0x310>
 8001cf4:	10800a20 	cmpeqi	r2,r2,40
 8001cf8:	10001726 	beq	r2,zero,8001d58 <menu_control+0x328>
            case 40: // enter
                menu_state = 1;
 8001cfc:	00800044 	movi	r2,1
 8001d00:	d0a81f15 	stw	r2,-24452(gp)
                // vga_ctrl->game_attr &= 0xFFE1;
                vga_ctrl->game_attr |= 4;
 8001d04:	d0a00017 	ldw	r2,-32768(gp)
 8001d08:	d0e00017 	ldw	r3,-32768(gp)
 8001d0c:	18c80917 	ldw	r3,8228(r3)
 8001d10:	18c00114 	ori	r3,r3,4
 8001d14:	10c80915 	stw	r3,8228(r2)
                show_menu(MAP, 0);
 8001d18:	000b883a 	mov	r5,zero
 8001d1c:	01000084 	movi	r4,2
 8001d20:	80003f40 	call	80003f4 <show_menu>
                break;
 8001d24:	00001006 	br	8001d68 <menu_control+0x338>
            case 81: // down
                // redraw the menu
                // show the high light on map
                // change the game status
                menu_state = 5;
 8001d28:	00800144 	movi	r2,5
 8001d2c:	d0a81f15 	stw	r2,-24452(gp)
                show_menu(3, 1);
 8001d30:	01400044 	movi	r5,1
 8001d34:	010000c4 	movi	r4,3
 8001d38:	80003f40 	call	80003f4 <show_menu>
                break;
 8001d3c:	00000a06 	br	8001d68 <menu_control+0x338>
            
            case 82: // up
                // redraw the menu
                // show the high light on map
                // change the game status
                menu_state = 3;
 8001d40:	008000c4 	movi	r2,3
 8001d44:	d0a81f15 	stw	r2,-24452(gp)
                show_menu(1, 1);
 8001d48:	01400044 	movi	r5,1
 8001d4c:	01000044 	movi	r4,1
 8001d50:	80003f40 	call	80003f4 <show_menu>
                break;
 8001d54:	00000406 	br	8001d68 <menu_control+0x338>

            default:
                printf("oops, unknown key pressed for menu\n");
 8001d58:	010200b4 	movhi	r4,2050
 8001d5c:	212bb804 	addi	r4,r4,-20768
 8001d60:	8005c680 	call	8005c68 <puts>
                break;
 8001d64:	0001883a 	nop
            }
            break;
 8001d68:	00002606 	br	8001e04 <menu_control+0x3d4>
        case 5:
            switch (key[i]) {
 8001d6c:	e0bffe17 	ldw	r2,-8(fp)
 8001d70:	e0ffff17 	ldw	r3,-4(fp)
 8001d74:	1885883a 	add	r2,r3,r2
 8001d78:	10800003 	ldbu	r2,0(r2)
 8001d7c:	10803fcc 	andi	r2,r2,255
 8001d80:	1080201c 	xori	r2,r2,128
 8001d84:	10bfe004 	addi	r2,r2,-128
 8001d88:	10c00a20 	cmpeqi	r3,r2,40
 8001d8c:	1800031e 	bne	r3,zero,8001d9c <menu_control+0x36c>
 8001d90:	108014a0 	cmpeqi	r2,r2,82
 8001d94:	10000c1e 	bne	r2,zero,8001dc8 <menu_control+0x398>
 8001d98:	00001106 	br	8001de0 <menu_control+0x3b0>
            case 40: // enter
                menu_state = 1;
 8001d9c:	00800044 	movi	r2,1
 8001da0:	d0a81f15 	stw	r2,-24452(gp)
                // vga_ctrl->game_attr &= 0xFFE1;
                vga_ctrl->game_attr |= 8;
 8001da4:	d0a00017 	ldw	r2,-32768(gp)
 8001da8:	d0e00017 	ldw	r3,-32768(gp)
 8001dac:	18c80917 	ldw	r3,8228(r3)
 8001db0:	18c00214 	ori	r3,r3,8
 8001db4:	10c80915 	stw	r3,8228(r2)
                show_menu(MAP, 0);
 8001db8:	000b883a 	mov	r5,zero
 8001dbc:	01000084 	movi	r4,2
 8001dc0:	80003f40 	call	80003f4 <show_menu>
                break;
 8001dc4:	00000a06 	br	8001df0 <menu_control+0x3c0>
            case 82: // up
                // redraw the menu
                // show the high light on map
                // change the game status
                menu_state = 4;
 8001dc8:	00800104 	movi	r2,4
 8001dcc:	d0a81f15 	stw	r2,-24452(gp)
                show_menu(2, 1);
 8001dd0:	01400044 	movi	r5,1
 8001dd4:	01000084 	movi	r4,2
 8001dd8:	80003f40 	call	80003f4 <show_menu>
                break;
 8001ddc:	00000406 	br	8001df0 <menu_control+0x3c0>

            default:
                printf("oops, unknown key pressed for menu\n");
 8001de0:	010200b4 	movhi	r4,2050
 8001de4:	212bb804 	addi	r4,r4,-20768
 8001de8:	8005c680 	call	8005c68 <puts>
                break;
 8001dec:	0001883a 	nop
            }
            break;
 8001df0:	00000406 	br	8001e04 <menu_control+0x3d4>
        default:
            printf("oops, menu state error\n");
 8001df4:	010200b4 	movhi	r4,2050
 8001df8:	212bc104 	addi	r4,r4,-20732
 8001dfc:	8005c680 	call	8005c68 <puts>
            break;
 8001e00:	0001883a 	nop
        return ;
    else
        last_key = key[0];
    printf("menu state: %d\n", menu_state);
	printf("game attr: %x\n", vga_ctrl->game_attr);
    for(i = 0; i < 1; i++) {
 8001e04:	e0bffe17 	ldw	r2,-8(fp)
 8001e08:	10800044 	addi	r2,r2,1
 8001e0c:	e0bffe15 	stw	r2,-8(fp)
 8001e10:	e0bffe17 	ldw	r2,-8(fp)
 8001e14:	00bf250e 	bge	zero,r2,8001aac <__alt_data_end+0xfc001aac>
 8001e18:	00000106 	br	8001e20 <menu_control+0x3f0>
 * @todo add logics for map and settings
 */
void menu_control(char* key) {
    int i;
    if (key[0] == last_key)
        return ;
 8001e1c:	0001883a 	nop
        default:
            printf("oops, menu state error\n");
            break;
        }
    }
}
 8001e20:	e037883a 	mov	sp,fp
 8001e24:	dfc00117 	ldw	ra,4(sp)
 8001e28:	df000017 	ldw	fp,0(sp)
 8001e2c:	dec00204 	addi	sp,sp,8
 8001e30:	f800283a 	ret

08001e34 <check_gear_legal_pos>:



// check if current drawing gear with has upper left point(x,y) does not overlap with coins, walls
// @note it can overlap with other gears
static int check_gear_legal_pos(alt_u32 x, alt_u32 y) {
 8001e34:	deffd504 	addi	sp,sp,-172
 8001e38:	dfc02a15 	stw	ra,168(sp)
 8001e3c:	df002915 	stw	fp,164(sp)
 8001e40:	df002904 	addi	fp,sp,164
 8001e44:	e13ffe15 	stw	r4,-8(fp)
 8001e48:	e17fff15 	stw	r5,-4(fp)
    int coin_x[COIN_TYPES], coin_y[COIN_TYPES];
    int wall_x[WALL_NUM], wall_y[WALL_NUM];
    int i;
    if(x < 0 || x >= SCREEN_WIDTH_PIXEL || y < 0 || y >= SCREEN_HEIGHT_PIXEL) {
 8001e4c:	e0bffe17 	ldw	r2,-8(fp)
 8001e50:	1080a028 	cmpgeui	r2,r2,640
 8001e54:	1000031e 	bne	r2,zero,8001e64 <check_gear_legal_pos+0x30>
 8001e58:	e0bfff17 	ldw	r2,-4(fp)
 8001e5c:	10807830 	cmpltui	r2,r2,480
 8001e60:	1000021e 	bne	r2,zero,8001e6c <check_gear_legal_pos+0x38>
        return 0;
 8001e64:	0005883a 	mov	r2,zero
 8001e68:	00009e06 	br	80020e4 <check_gear_legal_pos+0x2b0>
    }

    for(i = 0; i < COIN_TYPES; i++) { // very special, coin's coordinate is the center, we need to convert them to upper left
 8001e6c:	e03fd715 	stw	zero,-164(fp)
 8001e70:	00002706 	br	8001f10 <check_gear_legal_pos+0xdc>
        coin_x[i] = GET_COIN_X(vga_ctrl->coin_attr[i]) - 16;
 8001e74:	d0e00017 	ldw	r3,-32768(gp)
 8001e78:	e0bfd717 	ldw	r2,-164(fp)
 8001e7c:	10820284 	addi	r2,r2,2058
 8001e80:	1085883a 	add	r2,r2,r2
 8001e84:	1085883a 	add	r2,r2,r2
 8001e88:	1885883a 	add	r2,r3,r2
 8001e8c:	10800017 	ldw	r2,0(r2)
 8001e90:	1004d07a 	srli	r2,r2,1
 8001e94:	1080ffcc 	andi	r2,r2,1023
 8001e98:	10bffc04 	addi	r2,r2,-16
 8001e9c:	1007883a 	mov	r3,r2
 8001ea0:	e0bfd717 	ldw	r2,-164(fp)
 8001ea4:	1085883a 	add	r2,r2,r2
 8001ea8:	1085883a 	add	r2,r2,r2
 8001eac:	e13fd704 	addi	r4,fp,-164
 8001eb0:	2085883a 	add	r2,r4,r2
 8001eb4:	10800104 	addi	r2,r2,4
 8001eb8:	10c00015 	stw	r3,0(r2)
        coin_y[i] = GET_COIN_Y(vga_ctrl->coin_attr[i]) - 16;
 8001ebc:	d0e00017 	ldw	r3,-32768(gp)
 8001ec0:	e0bfd717 	ldw	r2,-164(fp)
 8001ec4:	10820284 	addi	r2,r2,2058
 8001ec8:	1085883a 	add	r2,r2,r2
 8001ecc:	1085883a 	add	r2,r2,r2
 8001ed0:	1885883a 	add	r2,r3,r2
 8001ed4:	10800017 	ldw	r2,0(r2)
 8001ed8:	1004d2fa 	srli	r2,r2,11
 8001edc:	1080ffcc 	andi	r2,r2,1023
 8001ee0:	10bffc04 	addi	r2,r2,-16
 8001ee4:	1007883a 	mov	r3,r2
 8001ee8:	e0bfd717 	ldw	r2,-164(fp)
 8001eec:	1085883a 	add	r2,r2,r2
 8001ef0:	1085883a 	add	r2,r2,r2
 8001ef4:	e17fd704 	addi	r5,fp,-164
 8001ef8:	2885883a 	add	r2,r5,r2
 8001efc:	10800404 	addi	r2,r2,16
 8001f00:	10c00015 	stw	r3,0(r2)
    int i;
    if(x < 0 || x >= SCREEN_WIDTH_PIXEL || y < 0 || y >= SCREEN_HEIGHT_PIXEL) {
        return 0;
    }

    for(i = 0; i < COIN_TYPES; i++) { // very special, coin's coordinate is the center, we need to convert them to upper left
 8001f04:	e0bfd717 	ldw	r2,-164(fp)
 8001f08:	10800044 	addi	r2,r2,1
 8001f0c:	e0bfd715 	stw	r2,-164(fp)
 8001f10:	e0bfd717 	ldw	r2,-164(fp)
 8001f14:	108000d0 	cmplti	r2,r2,3
 8001f18:	103fd61e 	bne	r2,zero,8001e74 <__alt_data_end+0xfc001e74>
        coin_x[i] = GET_COIN_X(vga_ctrl->coin_attr[i]) - 16;
        coin_y[i] = GET_COIN_Y(vga_ctrl->coin_attr[i]) - 16;
    }
    for(i = 0; i < WALL_NUM; i++) {
 8001f1c:	e03fd715 	stw	zero,-164(fp)
 8001f20:	00002306 	br	8001fb0 <check_gear_legal_pos+0x17c>
        wall_x[i] = GET_WALL_X(vga_ctrl->wall_pos[i]);
 8001f24:	d0e00017 	ldw	r3,-32768(gp)
 8001f28:	e0bfd717 	ldw	r2,-164(fp)
 8001f2c:	108204c4 	addi	r2,r2,2067
 8001f30:	1085883a 	add	r2,r2,r2
 8001f34:	1085883a 	add	r2,r2,r2
 8001f38:	1885883a 	add	r2,r3,r2
 8001f3c:	10800017 	ldw	r2,0(r2)
 8001f40:	1004d07a 	srli	r2,r2,1
 8001f44:	10c0ffcc 	andi	r3,r2,1023
 8001f48:	e0bfd717 	ldw	r2,-164(fp)
 8001f4c:	1085883a 	add	r2,r2,r2
 8001f50:	1085883a 	add	r2,r2,r2
 8001f54:	e1bfd704 	addi	r6,fp,-164
 8001f58:	3085883a 	add	r2,r6,r2
 8001f5c:	10800704 	addi	r2,r2,28
 8001f60:	10c00015 	stw	r3,0(r2)
        wall_y[i] = GET_WALL_Y(vga_ctrl->wall_pos[i]);
 8001f64:	d0e00017 	ldw	r3,-32768(gp)
 8001f68:	e0bfd717 	ldw	r2,-164(fp)
 8001f6c:	108204c4 	addi	r2,r2,2067
 8001f70:	1085883a 	add	r2,r2,r2
 8001f74:	1085883a 	add	r2,r2,r2
 8001f78:	1885883a 	add	r2,r3,r2
 8001f7c:	10800017 	ldw	r2,0(r2)
 8001f80:	1004d2fa 	srli	r2,r2,11
 8001f84:	10c0ffcc 	andi	r3,r2,1023
 8001f88:	e0bfd717 	ldw	r2,-164(fp)
 8001f8c:	1085883a 	add	r2,r2,r2
 8001f90:	1085883a 	add	r2,r2,r2
 8001f94:	e13fd704 	addi	r4,fp,-164
 8001f98:	2085883a 	add	r2,r4,r2
 8001f9c:	10801704 	addi	r2,r2,92
 8001fa0:	10c00015 	stw	r3,0(r2)

    for(i = 0; i < COIN_TYPES; i++) { // very special, coin's coordinate is the center, we need to convert them to upper left
        coin_x[i] = GET_COIN_X(vga_ctrl->coin_attr[i]) - 16;
        coin_y[i] = GET_COIN_Y(vga_ctrl->coin_attr[i]) - 16;
    }
    for(i = 0; i < WALL_NUM; i++) {
 8001fa4:	e0bfd717 	ldw	r2,-164(fp)
 8001fa8:	10800044 	addi	r2,r2,1
 8001fac:	e0bfd715 	stw	r2,-164(fp)
 8001fb0:	e0bfd717 	ldw	r2,-164(fp)
 8001fb4:	10800410 	cmplti	r2,r2,16
 8001fb8:	103fda1e 	bne	r2,zero,8001f24 <__alt_data_end+0xfc001f24>
        wall_x[i] = GET_WALL_X(vga_ctrl->wall_pos[i]);
        wall_y[i] = GET_WALL_Y(vga_ctrl->wall_pos[i]);
    }
    // 
    // check if overlap with coins
    for(i = 0; i < COIN_TYPES; i++) {
 8001fbc:	e03fd715 	stw	zero,-164(fp)
 8001fc0:	00002406 	br	8002054 <check_gear_legal_pos+0x220>
        if(COIN_EXIST(vga_ctrl->coin_attr[i]) && _check_overlap(x, y, coin_x[i], coin_y[i])) {
 8001fc4:	d0e00017 	ldw	r3,-32768(gp)
 8001fc8:	e0bfd717 	ldw	r2,-164(fp)
 8001fcc:	10820284 	addi	r2,r2,2058
 8001fd0:	1085883a 	add	r2,r2,r2
 8001fd4:	1085883a 	add	r2,r2,r2
 8001fd8:	1885883a 	add	r2,r3,r2
 8001fdc:	10800017 	ldw	r2,0(r2)
 8001fe0:	1080004c 	andi	r2,r2,1
 8001fe4:	10001826 	beq	r2,zero,8002048 <check_gear_legal_pos+0x214>
 8001fe8:	e0fffe17 	ldw	r3,-8(fp)
 8001fec:	e13fff17 	ldw	r4,-4(fp)
 8001ff0:	e0bfd717 	ldw	r2,-164(fp)
 8001ff4:	1085883a 	add	r2,r2,r2
 8001ff8:	1085883a 	add	r2,r2,r2
 8001ffc:	e17fd704 	addi	r5,fp,-164
 8002000:	2885883a 	add	r2,r5,r2
 8002004:	10800104 	addi	r2,r2,4
 8002008:	11400017 	ldw	r5,0(r2)
 800200c:	e0bfd717 	ldw	r2,-164(fp)
 8002010:	1085883a 	add	r2,r2,r2
 8002014:	1085883a 	add	r2,r2,r2
 8002018:	e1bfd704 	addi	r6,fp,-164
 800201c:	3085883a 	add	r2,r6,r2
 8002020:	10800404 	addi	r2,r2,16
 8002024:	10800017 	ldw	r2,0(r2)
 8002028:	100f883a 	mov	r7,r2
 800202c:	280d883a 	mov	r6,r5
 8002030:	200b883a 	mov	r5,r4
 8002034:	1809883a 	mov	r4,r3
 8002038:	800026c0 	call	800026c <_check_overlap>
 800203c:	10000226 	beq	r2,zero,8002048 <check_gear_legal_pos+0x214>
            return 0;
 8002040:	0005883a 	mov	r2,zero
 8002044:	00002706 	br	80020e4 <check_gear_legal_pos+0x2b0>
        wall_x[i] = GET_WALL_X(vga_ctrl->wall_pos[i]);
        wall_y[i] = GET_WALL_Y(vga_ctrl->wall_pos[i]);
    }
    // 
    // check if overlap with coins
    for(i = 0; i < COIN_TYPES; i++) {
 8002048:	e0bfd717 	ldw	r2,-164(fp)
 800204c:	10800044 	addi	r2,r2,1
 8002050:	e0bfd715 	stw	r2,-164(fp)
 8002054:	e0bfd717 	ldw	r2,-164(fp)
 8002058:	108000d0 	cmplti	r2,r2,3
 800205c:	103fd91e 	bne	r2,zero,8001fc4 <__alt_data_end+0xfc001fc4>
        }
    }

    // check if overlap with walls

    for(i = 0; i < WALL_NUM; i++) {
 8002060:	e03fd715 	stw	zero,-164(fp)
 8002064:	00001b06 	br	80020d4 <check_gear_legal_pos+0x2a0>
        if(_check_overlap(x, y, wall_x[i], wall_y[i])) {
 8002068:	e0fffe17 	ldw	r3,-8(fp)
 800206c:	e13fff17 	ldw	r4,-4(fp)
 8002070:	e0bfd717 	ldw	r2,-164(fp)
 8002074:	1085883a 	add	r2,r2,r2
 8002078:	1085883a 	add	r2,r2,r2
 800207c:	e17fd704 	addi	r5,fp,-164
 8002080:	2885883a 	add	r2,r5,r2
 8002084:	10800704 	addi	r2,r2,28
 8002088:	11400017 	ldw	r5,0(r2)
 800208c:	e0bfd717 	ldw	r2,-164(fp)
 8002090:	1085883a 	add	r2,r2,r2
 8002094:	1085883a 	add	r2,r2,r2
 8002098:	e1bfd704 	addi	r6,fp,-164
 800209c:	3085883a 	add	r2,r6,r2
 80020a0:	10801704 	addi	r2,r2,92
 80020a4:	10800017 	ldw	r2,0(r2)
 80020a8:	100f883a 	mov	r7,r2
 80020ac:	280d883a 	mov	r6,r5
 80020b0:	200b883a 	mov	r5,r4
 80020b4:	1809883a 	mov	r4,r3
 80020b8:	800026c0 	call	800026c <_check_overlap>
 80020bc:	10000226 	beq	r2,zero,80020c8 <check_gear_legal_pos+0x294>
            return 0;
 80020c0:	0005883a 	mov	r2,zero
 80020c4:	00000706 	br	80020e4 <check_gear_legal_pos+0x2b0>
        }
    }

    // check if overlap with walls

    for(i = 0; i < WALL_NUM; i++) {
 80020c8:	e0bfd717 	ldw	r2,-164(fp)
 80020cc:	10800044 	addi	r2,r2,1
 80020d0:	e0bfd715 	stw	r2,-164(fp)
 80020d4:	e0bfd717 	ldw	r2,-164(fp)
 80020d8:	10800410 	cmplti	r2,r2,16
 80020dc:	103fe21e 	bne	r2,zero,8002068 <__alt_data_end+0xfc002068>
        if(_check_overlap(x, y, wall_x[i], wall_y[i])) {
            return 0;
        }
    }

    return 1;
 80020e0:	00800044 	movi	r2,1
} 
 80020e4:	e037883a 	mov	sp,fp
 80020e8:	dfc00117 	ldw	ra,4(sp)
 80020ec:	df000017 	ldw	fp,0(sp)
 80020f0:	dec00204 	addi	sp,sp,8
 80020f4:	f800283a 	ret

080020f8 <calc_dis>:

// @note do not use unsigned here, we have subtraction
static int calc_dis(int x1, int y1, int x2, int y2) {
 80020f8:	defff904 	addi	sp,sp,-28
 80020fc:	dfc00615 	stw	ra,24(sp)
 8002100:	df000515 	stw	fp,20(sp)
 8002104:	dc000415 	stw	r16,16(sp)
 8002108:	df000504 	addi	fp,sp,20
 800210c:	e13ffb15 	stw	r4,-20(fp)
 8002110:	e17ffc15 	stw	r5,-16(fp)
 8002114:	e1bffd15 	stw	r6,-12(fp)
 8002118:	e1fffe15 	stw	r7,-8(fp)
    return (x1-x2)*(x1-x2) + (y1-y2)*(y1-y2);
 800211c:	e0fffb17 	ldw	r3,-20(fp)
 8002120:	e0bffd17 	ldw	r2,-12(fp)
 8002124:	1889c83a 	sub	r4,r3,r2
 8002128:	e0fffb17 	ldw	r3,-20(fp)
 800212c:	e0bffd17 	ldw	r2,-12(fp)
 8002130:	1885c83a 	sub	r2,r3,r2
 8002134:	100b883a 	mov	r5,r2
 8002138:	80059ac0 	call	80059ac <__mulsi3>
 800213c:	1021883a 	mov	r16,r2
 8002140:	e0fffc17 	ldw	r3,-16(fp)
 8002144:	e0bffe17 	ldw	r2,-8(fp)
 8002148:	1889c83a 	sub	r4,r3,r2
 800214c:	e0fffc17 	ldw	r3,-16(fp)
 8002150:	e0bffe17 	ldw	r2,-8(fp)
 8002154:	1885c83a 	sub	r2,r3,r2
 8002158:	100b883a 	mov	r5,r2
 800215c:	80059ac0 	call	80059ac <__mulsi3>
 8002160:	8085883a 	add	r2,r16,r2
}
 8002164:	e6ffff04 	addi	sp,fp,-4
 8002168:	dfc00217 	ldw	ra,8(sp)
 800216c:	df000117 	ldw	fp,4(sp)
 8002170:	dc000017 	ldw	r16,0(sp)
 8002174:	dec00304 	addi	sp,sp,12
 8002178:	f800283a 	ret

0800217c <check_gears>:

/**
 * @brief check if any gear is not on screen, if so, we put a new gear on the screen.
 */
void check_gears(void) {
 800217c:	defffb04 	addi	sp,sp,-20
 8002180:	dfc00415 	stw	ra,16(sp)
 8002184:	df000315 	stw	fp,12(sp)
 8002188:	df000304 	addi	fp,sp,12
    static int last_coin_pos[COIN_TYPES][2] = {{GOLD_COIN_DEFAULT_X, GOLD_COIN_DEFAULT_Y}, {SILVER_COIN_DEFAULT_X, SILVER_COIN_DEFAULT_Y}, {BRONZE_COIN_DEFAULT_X, BRONZE_COIN_DEFAULT_Y}};
    static int last_gear_pos[GEAR_TYPES][2] = {{HEALTH_GEAR_DEAFULT_X, HEALTH_GEAR_DEAFULT_Y}, {SPEED_GEAR_DEAFULT_X, SPEED_GEAR_DEAFULT_Y}};
    int new_x, new_y;
    int i;
    for(i = 0; i < COIN_TYPES; i++) {
 800218c:	e03ffd15 	stw	zero,-12(fp)
 8002190:	00006b06 	br	8002340 <check_gears+0x1c4>
        new_x = rand() % SCREEN_WIDTH_PIXEL, new_y = rand() % SCREEN_HEIGHT_PIXEL;
 8002194:	8005c940 	call	8005c94 <rand>
 8002198:	0140a004 	movi	r5,640
 800219c:	1009883a 	mov	r4,r2
 80021a0:	800587c0 	call	800587c <__modsi3>
 80021a4:	e0bffe15 	stw	r2,-8(fp)
 80021a8:	8005c940 	call	8005c94 <rand>
 80021ac:	01407804 	movi	r5,480
 80021b0:	1009883a 	mov	r4,r2
 80021b4:	800587c0 	call	800587c <__modsi3>
 80021b8:	e0bfff15 	stw	r2,-4(fp)
        // align to 32 
        new_x = new_x - new_x % 32 + 16;
 80021bc:	e0fffe17 	ldw	r3,-8(fp)
 80021c0:	00a00034 	movhi	r2,32768
 80021c4:	108007c4 	addi	r2,r2,31
 80021c8:	1884703a 	and	r2,r3,r2
 80021cc:	1000040e 	bge	r2,zero,80021e0 <check_gears+0x64>
 80021d0:	10bfffc4 	addi	r2,r2,-1
 80021d4:	00fff804 	movi	r3,-32
 80021d8:	10c4b03a 	or	r2,r2,r3
 80021dc:	10800044 	addi	r2,r2,1
 80021e0:	1007883a 	mov	r3,r2
 80021e4:	e0bffe17 	ldw	r2,-8(fp)
 80021e8:	10c5c83a 	sub	r2,r2,r3
 80021ec:	10800404 	addi	r2,r2,16
 80021f0:	e0bffe15 	stw	r2,-8(fp)
        new_y = new_y - new_y % 32 + 16;
 80021f4:	e0ffff17 	ldw	r3,-4(fp)
 80021f8:	00a00034 	movhi	r2,32768
 80021fc:	108007c4 	addi	r2,r2,31
 8002200:	1884703a 	and	r2,r3,r2
 8002204:	1000040e 	bge	r2,zero,8002218 <check_gears+0x9c>
 8002208:	10bfffc4 	addi	r2,r2,-1
 800220c:	00fff804 	movi	r3,-32
 8002210:	10c4b03a 	or	r2,r2,r3
 8002214:	10800044 	addi	r2,r2,1
 8002218:	1007883a 	mov	r3,r2
 800221c:	e0bfff17 	ldw	r2,-4(fp)
 8002220:	10c5c83a 	sub	r2,r2,r3
 8002224:	10800404 	addi	r2,r2,16
 8002228:	e0bfff15 	stw	r2,-4(fp)
        if(!COIN_EXIST(vga_ctrl->coin_attr[i])) {
 800222c:	d0e00017 	ldw	r3,-32768(gp)
 8002230:	e0bffd17 	ldw	r2,-12(fp)
 8002234:	10820284 	addi	r2,r2,2058
 8002238:	1085883a 	add	r2,r2,r2
 800223c:	1085883a 	add	r2,r2,r2
 8002240:	1885883a 	add	r2,r3,r2
 8002244:	10800017 	ldw	r2,0(r2)
 8002248:	1080004c 	andi	r2,r2,1
 800224c:	1000391e 	bne	r2,zero,8002334 <check_gears+0x1b8>
            if(check_gear_legal_pos(new_x, new_y)) { // check if new position has overlap with other gears and if new position is on screen
 8002250:	e0bffe17 	ldw	r2,-8(fp)
 8002254:	e0ffff17 	ldw	r3,-4(fp)
 8002258:	180b883a 	mov	r5,r3
 800225c:	1009883a 	mov	r4,r2
 8002260:	8001e340 	call	8001e34 <check_gear_legal_pos>
 8002264:	10003326 	beq	r2,zero,8002334 <check_gears+0x1b8>
                if(calc_dis(new_x, new_y, last_coin_pos[i][0], last_coin_pos[i][1]) < REGENERATE_RADIUS * REGENERATE_RADIUS) { // too close to last gear, not fair
 8002268:	008200b4 	movhi	r2,2050
 800226c:	10adc704 	addi	r2,r2,-18660
 8002270:	e0fffd17 	ldw	r3,-12(fp)
 8002274:	180690fa 	slli	r3,r3,3
 8002278:	10c5883a 	add	r2,r2,r3
 800227c:	11000017 	ldw	r4,0(r2)
 8002280:	008200b4 	movhi	r2,2050
 8002284:	10adc704 	addi	r2,r2,-18660
 8002288:	e0fffd17 	ldw	r3,-12(fp)
 800228c:	180690fa 	slli	r3,r3,3
 8002290:	10c5883a 	add	r2,r2,r3
 8002294:	10800104 	addi	r2,r2,4
 8002298:	10800017 	ldw	r2,0(r2)
 800229c:	100f883a 	mov	r7,r2
 80022a0:	200d883a 	mov	r6,r4
 80022a4:	e17fff17 	ldw	r5,-4(fp)
 80022a8:	e13ffe17 	ldw	r4,-8(fp)
 80022ac:	80020f80 	call	80020f8 <calc_dis>
 80022b0:	10838408 	cmpgei	r2,r2,3600
 80022b4:	10001e26 	beq	r2,zero,8002330 <check_gears+0x1b4>
                    continue;
                }
                vga_ctrl->coin_attr[i] = GET_POS_COIN(new_x, new_y);
 80022b8:	d0e00017 	ldw	r3,-32768(gp)
 80022bc:	e0bffe17 	ldw	r2,-8(fp)
 80022c0:	1085883a 	add	r2,r2,r2
 80022c4:	11000054 	ori	r4,r2,1
 80022c8:	e0bfff17 	ldw	r2,-4(fp)
 80022cc:	100492fa 	slli	r2,r2,11
 80022d0:	2084b03a 	or	r2,r4,r2
 80022d4:	1009883a 	mov	r4,r2
 80022d8:	e0bffd17 	ldw	r2,-12(fp)
 80022dc:	10820284 	addi	r2,r2,2058
 80022e0:	1085883a 	add	r2,r2,r2
 80022e4:	1085883a 	add	r2,r2,r2
 80022e8:	1885883a 	add	r2,r3,r2
 80022ec:	11000015 	stw	r4,0(r2)
                last_coin_pos[i][0] = new_x;
 80022f0:	008200b4 	movhi	r2,2050
 80022f4:	10adc704 	addi	r2,r2,-18660
 80022f8:	e0fffd17 	ldw	r3,-12(fp)
 80022fc:	180690fa 	slli	r3,r3,3
 8002300:	10c5883a 	add	r2,r2,r3
 8002304:	e0fffe17 	ldw	r3,-8(fp)
 8002308:	10c00015 	stw	r3,0(r2)
                last_coin_pos[i][1] = new_y;
 800230c:	008200b4 	movhi	r2,2050
 8002310:	10adc704 	addi	r2,r2,-18660
 8002314:	e0fffd17 	ldw	r3,-12(fp)
 8002318:	180690fa 	slli	r3,r3,3
 800231c:	10c5883a 	add	r2,r2,r3
 8002320:	10800104 	addi	r2,r2,4
 8002324:	e0ffff17 	ldw	r3,-4(fp)
 8002328:	10c00015 	stw	r3,0(r2)
 800232c:	00000106 	br	8002334 <check_gears+0x1b8>
        new_x = new_x - new_x % 32 + 16;
        new_y = new_y - new_y % 32 + 16;
        if(!COIN_EXIST(vga_ctrl->coin_attr[i])) {
            if(check_gear_legal_pos(new_x, new_y)) { // check if new position has overlap with other gears and if new position is on screen
                if(calc_dis(new_x, new_y, last_coin_pos[i][0], last_coin_pos[i][1]) < REGENERATE_RADIUS * REGENERATE_RADIUS) { // too close to last gear, not fair
                    continue;
 8002330:	0001883a 	nop
void check_gears(void) {
    static int last_coin_pos[COIN_TYPES][2] = {{GOLD_COIN_DEFAULT_X, GOLD_COIN_DEFAULT_Y}, {SILVER_COIN_DEFAULT_X, SILVER_COIN_DEFAULT_Y}, {BRONZE_COIN_DEFAULT_X, BRONZE_COIN_DEFAULT_Y}};
    static int last_gear_pos[GEAR_TYPES][2] = {{HEALTH_GEAR_DEAFULT_X, HEALTH_GEAR_DEAFULT_Y}, {SPEED_GEAR_DEAFULT_X, SPEED_GEAR_DEAFULT_Y}};
    int new_x, new_y;
    int i;
    for(i = 0; i < COIN_TYPES; i++) {
 8002334:	e0bffd17 	ldw	r2,-12(fp)
 8002338:	10800044 	addi	r2,r2,1
 800233c:	e0bffd15 	stw	r2,-12(fp)
 8002340:	e0bffd17 	ldw	r2,-12(fp)
 8002344:	108000d0 	cmplti	r2,r2,3
 8002348:	103f921e 	bne	r2,zero,8002194 <__alt_data_end+0xfc002194>
            } 
            // don't wait because we don't re-generate a new position    
        }
    }

    for(i = 0; i < GEAR_TYPES; i++) {
 800234c:	e03ffd15 	stw	zero,-12(fp)
 8002350:	00006906 	br	80024f8 <check_gears+0x37c>
        new_x = rand() % SCREEN_WIDTH_PIXEL, new_y = rand() % SCREEN_HEIGHT_PIXEL;
 8002354:	8005c940 	call	8005c94 <rand>
 8002358:	0140a004 	movi	r5,640
 800235c:	1009883a 	mov	r4,r2
 8002360:	800587c0 	call	800587c <__modsi3>
 8002364:	e0bffe15 	stw	r2,-8(fp)
 8002368:	8005c940 	call	8005c94 <rand>
 800236c:	01407804 	movi	r5,480
 8002370:	1009883a 	mov	r4,r2
 8002374:	800587c0 	call	800587c <__modsi3>
 8002378:	e0bfff15 	stw	r2,-4(fp)
        // align to 32
        new_x = new_x - new_x % 32;
 800237c:	e0fffe17 	ldw	r3,-8(fp)
 8002380:	00a00034 	movhi	r2,32768
 8002384:	108007c4 	addi	r2,r2,31
 8002388:	1884703a 	and	r2,r3,r2
 800238c:	1000040e 	bge	r2,zero,80023a0 <check_gears+0x224>
 8002390:	10bfffc4 	addi	r2,r2,-1
 8002394:	00fff804 	movi	r3,-32
 8002398:	10c4b03a 	or	r2,r2,r3
 800239c:	10800044 	addi	r2,r2,1
 80023a0:	1007883a 	mov	r3,r2
 80023a4:	e0bffe17 	ldw	r2,-8(fp)
 80023a8:	10c5c83a 	sub	r2,r2,r3
 80023ac:	e0bffe15 	stw	r2,-8(fp)
        new_y = new_y - new_y % 32;
 80023b0:	e0ffff17 	ldw	r3,-4(fp)
 80023b4:	00a00034 	movhi	r2,32768
 80023b8:	108007c4 	addi	r2,r2,31
 80023bc:	1884703a 	and	r2,r3,r2
 80023c0:	1000040e 	bge	r2,zero,80023d4 <check_gears+0x258>
 80023c4:	10bfffc4 	addi	r2,r2,-1
 80023c8:	00fff804 	movi	r3,-32
 80023cc:	10c4b03a 	or	r2,r2,r3
 80023d0:	10800044 	addi	r2,r2,1
 80023d4:	1007883a 	mov	r3,r2
 80023d8:	e0bfff17 	ldw	r2,-4(fp)
 80023dc:	10c5c83a 	sub	r2,r2,r3
 80023e0:	e0bfff15 	stw	r2,-4(fp)
        if(!GEAR_EXIST(vga_ctrl->gear_attr[i])) {
 80023e4:	d0e00017 	ldw	r3,-32768(gp)
 80023e8:	e0bffd17 	ldw	r2,-12(fp)
 80023ec:	108209c4 	addi	r2,r2,2087
 80023f0:	1085883a 	add	r2,r2,r2
 80023f4:	1085883a 	add	r2,r2,r2
 80023f8:	1885883a 	add	r2,r3,r2
 80023fc:	10800017 	ldw	r2,0(r2)
 8002400:	1080004c 	andi	r2,r2,1
 8002404:	1000391e 	bne	r2,zero,80024ec <check_gears+0x370>
            if(check_gear_legal_pos(new_x, new_y)) {
 8002408:	e0bffe17 	ldw	r2,-8(fp)
 800240c:	e0ffff17 	ldw	r3,-4(fp)
 8002410:	180b883a 	mov	r5,r3
 8002414:	1009883a 	mov	r4,r2
 8002418:	8001e340 	call	8001e34 <check_gear_legal_pos>
 800241c:	10003326 	beq	r2,zero,80024ec <check_gears+0x370>
                if(calc_dis(new_x, new_y, last_gear_pos[i][0], last_gear_pos[i][1]) < REGENERATE_RADIUS * REGENERATE_RADIUS) { // too close to last gear, not fair
 8002420:	008200b4 	movhi	r2,2050
 8002424:	10adcd04 	addi	r2,r2,-18636
 8002428:	e0fffd17 	ldw	r3,-12(fp)
 800242c:	180690fa 	slli	r3,r3,3
 8002430:	10c5883a 	add	r2,r2,r3
 8002434:	11000017 	ldw	r4,0(r2)
 8002438:	008200b4 	movhi	r2,2050
 800243c:	10adcd04 	addi	r2,r2,-18636
 8002440:	e0fffd17 	ldw	r3,-12(fp)
 8002444:	180690fa 	slli	r3,r3,3
 8002448:	10c5883a 	add	r2,r2,r3
 800244c:	10800104 	addi	r2,r2,4
 8002450:	10800017 	ldw	r2,0(r2)
 8002454:	100f883a 	mov	r7,r2
 8002458:	200d883a 	mov	r6,r4
 800245c:	e17fff17 	ldw	r5,-4(fp)
 8002460:	e13ffe17 	ldw	r4,-8(fp)
 8002464:	80020f80 	call	80020f8 <calc_dis>
 8002468:	10838408 	cmpgei	r2,r2,3600
 800246c:	10001e26 	beq	r2,zero,80024e8 <check_gears+0x36c>
                    continue;
                }
                vga_ctrl->gear_attr[i] = GET_POS_GEAR(new_x, new_y);
 8002470:	d0e00017 	ldw	r3,-32768(gp)
 8002474:	e0bffe17 	ldw	r2,-8(fp)
 8002478:	1085883a 	add	r2,r2,r2
 800247c:	11000054 	ori	r4,r2,1
 8002480:	e0bfff17 	ldw	r2,-4(fp)
 8002484:	100492fa 	slli	r2,r2,11
 8002488:	2084b03a 	or	r2,r4,r2
 800248c:	1009883a 	mov	r4,r2
 8002490:	e0bffd17 	ldw	r2,-12(fp)
 8002494:	108209c4 	addi	r2,r2,2087
 8002498:	1085883a 	add	r2,r2,r2
 800249c:	1085883a 	add	r2,r2,r2
 80024a0:	1885883a 	add	r2,r3,r2
 80024a4:	11000015 	stw	r4,0(r2)
                last_gear_pos[i][0] = new_x;
 80024a8:	008200b4 	movhi	r2,2050
 80024ac:	10adcd04 	addi	r2,r2,-18636
 80024b0:	e0fffd17 	ldw	r3,-12(fp)
 80024b4:	180690fa 	slli	r3,r3,3
 80024b8:	10c5883a 	add	r2,r2,r3
 80024bc:	e0fffe17 	ldw	r3,-8(fp)
 80024c0:	10c00015 	stw	r3,0(r2)
                last_gear_pos[i][1] = new_y;
 80024c4:	008200b4 	movhi	r2,2050
 80024c8:	10adcd04 	addi	r2,r2,-18636
 80024cc:	e0fffd17 	ldw	r3,-12(fp)
 80024d0:	180690fa 	slli	r3,r3,3
 80024d4:	10c5883a 	add	r2,r2,r3
 80024d8:	10800104 	addi	r2,r2,4
 80024dc:	e0ffff17 	ldw	r3,-4(fp)
 80024e0:	10c00015 	stw	r3,0(r2)
 80024e4:	00000106 	br	80024ec <check_gears+0x370>
        new_x = new_x - new_x % 32;
        new_y = new_y - new_y % 32;
        if(!GEAR_EXIST(vga_ctrl->gear_attr[i])) {
            if(check_gear_legal_pos(new_x, new_y)) {
                if(calc_dis(new_x, new_y, last_gear_pos[i][0], last_gear_pos[i][1]) < REGENERATE_RADIUS * REGENERATE_RADIUS) { // too close to last gear, not fair
                    continue;
 80024e8:	0001883a 	nop
            } 
            // don't wait because we don't re-generate a new position    
        }
    }

    for(i = 0; i < GEAR_TYPES; i++) {
 80024ec:	e0bffd17 	ldw	r2,-12(fp)
 80024f0:	10800044 	addi	r2,r2,1
 80024f4:	e0bffd15 	stw	r2,-12(fp)
 80024f8:	e0bffd17 	ldw	r2,-12(fp)
 80024fc:	10800090 	cmplti	r2,r2,2
 8002500:	103f941e 	bne	r2,zero,8002354 <__alt_data_end+0xfc002354>
            } 
            // don't wait because we don't re-generate a new position    
        }
    }

}
 8002504:	0001883a 	nop
 8002508:	e037883a 	mov	sp,fp
 800250c:	dfc00117 	ldw	ra,4(sp)
 8002510:	df000017 	ldw	fp,0(sp)
 8002514:	dec00204 	addi	sp,sp,8
 8002518:	f800283a 	ret

0800251c <GetDriverandReport>:
extern HID_DEVICE hid_device;

static BYTE addr = 1; 				//hard-wired USB address
const char* const devclasses[] = { " Uninitialized", " HID Keyboard", " HID Mouse", " Mass storage" };

BYTE GetDriverandReport() {
 800251c:	defff604 	addi	sp,sp,-40
 8002520:	dfc00915 	stw	ra,36(sp)
 8002524:	df000815 	stw	fp,32(sp)
 8002528:	df000804 	addi	fp,sp,32
	BYTE i;
	BYTE rcode;
	BYTE device = 0xFF;
 800252c:	00bfffc4 	movi	r2,-1
 8002530:	e0bffd45 	stb	r2,-11(fp)
	BYTE tmpbyte;

	DEV_RECORD* tpl_ptr;
	printf("Reached USB_STATE_RUNNING (0x40)\n");
 8002534:	010200b4 	movhi	r4,2050
 8002538:	212bda04 	addi	r4,r4,-20632
 800253c:	8005c680 	call	8005c68 <puts>
	for (i = 1; i < USB_NUMDEVICES; i++) {
 8002540:	00800044 	movi	r2,1
 8002544:	e0bffd05 	stb	r2,-12(fp)
 8002548:	00001f06 	br	80025c8 <GetDriverandReport+0xac>
		tpl_ptr = GetDevtable(i);
 800254c:	e0bffd03 	ldbu	r2,-12(fp)
 8002550:	1009883a 	mov	r4,r2
 8002554:	800573c0 	call	800573c <GetDevtable>
 8002558:	e0bffe15 	stw	r2,-8(fp)
		if (tpl_ptr->epinfo != NULL) {
 800255c:	e0bffe17 	ldw	r2,-8(fp)
 8002560:	10800017 	ldw	r2,0(r2)
 8002564:	10001526 	beq	r2,zero,80025bc <GetDriverandReport+0xa0>
			printf("Device: %d", i);
 8002568:	e0bffd03 	ldbu	r2,-12(fp)
 800256c:	100b883a 	mov	r5,r2
 8002570:	010200b4 	movhi	r4,2050
 8002574:	212be304 	addi	r4,r4,-20596
 8002578:	8005b4c0 	call	8005b4c <printf>
			printf("%s \n", devclasses[tpl_ptr->devclass]);
 800257c:	e0bffe17 	ldw	r2,-8(fp)
 8002580:	10800103 	ldbu	r2,4(r2)
 8002584:	10c03fcc 	andi	r3,r2,255
 8002588:	008200b4 	movhi	r2,2050
 800258c:	10abd604 	addi	r2,r2,-20648
 8002590:	18c7883a 	add	r3,r3,r3
 8002594:	18c7883a 	add	r3,r3,r3
 8002598:	10c5883a 	add	r2,r2,r3
 800259c:	10800017 	ldw	r2,0(r2)
 80025a0:	100b883a 	mov	r5,r2
 80025a4:	010200b4 	movhi	r4,2050
 80025a8:	212be604 	addi	r4,r4,-20584
 80025ac:	8005b4c0 	call	8005b4c <printf>
			device = tpl_ptr->devclass;
 80025b0:	e0bffe17 	ldw	r2,-8(fp)
 80025b4:	10800103 	ldbu	r2,4(r2)
 80025b8:	e0bffd45 	stb	r2,-11(fp)
	BYTE device = 0xFF;
	BYTE tmpbyte;

	DEV_RECORD* tpl_ptr;
	printf("Reached USB_STATE_RUNNING (0x40)\n");
	for (i = 1; i < USB_NUMDEVICES; i++) {
 80025bc:	e0bffd03 	ldbu	r2,-12(fp)
 80025c0:	10800044 	addi	r2,r2,1
 80025c4:	e0bffd05 	stb	r2,-12(fp)
 80025c8:	e0bffd03 	ldbu	r2,-12(fp)
 80025cc:	10800230 	cmpltui	r2,r2,8
 80025d0:	103fde1e 	bne	r2,zero,800254c <__alt_data_end+0xfc00254c>
			printf("%s \n", devclasses[tpl_ptr->devclass]);
			device = tpl_ptr->devclass;
		}
	}
	//Query rate and protocol
	rcode = XferGetIdle(addr, 0, hid_device.interface, 0, &tmpbyte);
 80025d4:	d0a00203 	ldbu	r2,-32760(gp)
 80025d8:	11003fcc 	andi	r4,r2,255
 80025dc:	d0a82783 	ldbu	r2,-24418(gp)
 80025e0:	10803fcc 	andi	r2,r2,255
 80025e4:	e0ffff44 	addi	r3,fp,-3
 80025e8:	d8c00415 	stw	r3,16(sp)
 80025ec:	00c00044 	movi	r3,1
 80025f0:	d8c00315 	stw	r3,12(sp)
 80025f4:	d8800215 	stw	r2,8(sp)
 80025f8:	d8000115 	stw	zero,4(sp)
 80025fc:	d8000015 	stw	zero,0(sp)
 8002600:	01c00084 	movi	r7,2
 8002604:	01802844 	movi	r6,161
 8002608:	000b883a 	mov	r5,zero
 800260c:	80049600 	call	8004960 <XferCtrlReq>
 8002610:	e0bfff05 	stb	r2,-4(fp)
	if (rcode) {   //error handling
 8002614:	e0bfff03 	ldbu	r2,-4(fp)
 8002618:	10000926 	beq	r2,zero,8002640 <GetDriverandReport+0x124>
		printf("GetIdle Error. Error code: ");
 800261c:	010200b4 	movhi	r4,2050
 8002620:	212be804 	addi	r4,r4,-20576
 8002624:	8005b4c0 	call	8005b4c <printf>
		printf("%x \n", rcode);
 8002628:	e0bfff03 	ldbu	r2,-4(fp)
 800262c:	100b883a 	mov	r5,r2
 8002630:	010200b4 	movhi	r4,2050
 8002634:	212bef04 	addi	r4,r4,-20548
 8002638:	8005b4c0 	call	8005b4c <printf>
 800263c:	00000906 	br	8002664 <GetDriverandReport+0x148>
	} else {
		printf("Update rate: ");
 8002640:	010200b4 	movhi	r4,2050
 8002644:	212bf104 	addi	r4,r4,-20540
 8002648:	8005b4c0 	call	8005b4c <printf>
		printf("%x \n", tmpbyte);
 800264c:	e0bfff43 	ldbu	r2,-3(fp)
 8002650:	10803fcc 	andi	r2,r2,255
 8002654:	100b883a 	mov	r5,r2
 8002658:	010200b4 	movhi	r4,2050
 800265c:	212bef04 	addi	r4,r4,-20548
 8002660:	8005b4c0 	call	8005b4c <printf>
	}
	printf("Protocol: ");
 8002664:	010200b4 	movhi	r4,2050
 8002668:	212bf504 	addi	r4,r4,-20524
 800266c:	8005b4c0 	call	8005b4c <printf>
	rcode = XferGetProto(addr, 0,  hid_device.interface, &tmpbyte);
 8002670:	d0a00203 	ldbu	r2,-32760(gp)
 8002674:	11003fcc 	andi	r4,r2,255
 8002678:	d0a82783 	ldbu	r2,-24418(gp)
 800267c:	10803fcc 	andi	r2,r2,255
 8002680:	e0ffff44 	addi	r3,fp,-3
 8002684:	d8c00415 	stw	r3,16(sp)
 8002688:	00c00044 	movi	r3,1
 800268c:	d8c00315 	stw	r3,12(sp)
 8002690:	d8800215 	stw	r2,8(sp)
 8002694:	d8000115 	stw	zero,4(sp)
 8002698:	d8000015 	stw	zero,0(sp)
 800269c:	01c000c4 	movi	r7,3
 80026a0:	01802844 	movi	r6,161
 80026a4:	000b883a 	mov	r5,zero
 80026a8:	80049600 	call	8004960 <XferCtrlReq>
 80026ac:	e0bfff05 	stb	r2,-4(fp)
	if (rcode) {   //error handling
 80026b0:	e0bfff03 	ldbu	r2,-4(fp)
 80026b4:	10000926 	beq	r2,zero,80026dc <GetDriverandReport+0x1c0>
		printf("GetProto Error. Error code ");
 80026b8:	010200b4 	movhi	r4,2050
 80026bc:	212bf804 	addi	r4,r4,-20512
 80026c0:	8005b4c0 	call	8005b4c <printf>
		printf("%x \n", rcode);
 80026c4:	e0bfff03 	ldbu	r2,-4(fp)
 80026c8:	100b883a 	mov	r5,r2
 80026cc:	010200b4 	movhi	r4,2050
 80026d0:	212bef04 	addi	r4,r4,-20548
 80026d4:	8005b4c0 	call	8005b4c <printf>
 80026d8:	00000606 	br	80026f4 <GetDriverandReport+0x1d8>
	} else {
		printf("%d \n", tmpbyte);
 80026dc:	e0bfff43 	ldbu	r2,-3(fp)
 80026e0:	10803fcc 	andi	r2,r2,255
 80026e4:	100b883a 	mov	r5,r2
 80026e8:	010200b4 	movhi	r4,2050
 80026ec:	212bff04 	addi	r4,r4,-20484
 80026f0:	8005b4c0 	call	8005b4c <printf>
	}
	return device;
 80026f4:	e0bffd43 	ldbu	r2,-11(fp)
}
 80026f8:	e037883a 	mov	sp,fp
 80026fc:	dfc00117 	ldw	ra,4(sp)
 8002700:	df000017 	ldw	fp,0(sp)
 8002704:	dec00204 	addi	sp,sp,8
 8002708:	f800283a 	ret

0800270c <setKeycode>:


void setKeycode(WORD keycode)
{
 800270c:	defffe04 	addi	sp,sp,-8
 8002710:	df000115 	stw	fp,4(sp)
 8002714:	df000104 	addi	fp,sp,4
 8002718:	2005883a 	mov	r2,r4
 800271c:	e0bfff0d 	sth	r2,-4(fp)
	IOWR_ALTERA_AVALON_PIO_DATA(0x90, keycode);
 8002720:	e0ffff0b 	ldhu	r3,-4(fp)
 8002724:	00802404 	movi	r2,144
 8002728:	10c00035 	stwio	r3,0(r2)
}
 800272c:	0001883a 	nop
 8002730:	e037883a 	mov	sp,fp
 8002734:	df000017 	ldw	fp,0(sp)
 8002738:	dec00104 	addi	sp,sp,4
 800273c:	f800283a 	ret

08002740 <transfer_code>:


long transfer_code(char* keycode){
 8002740:	defff304 	addi	sp,sp,-52
 8002744:	dfc00c15 	stw	ra,48(sp)
 8002748:	df000b15 	stw	fp,44(sp)
 800274c:	df000b04 	addi	fp,sp,44
 8002750:	e13fff15 	stw	r4,-4(fp)
	// test text showing
	long final_code;
	long tank1_code, tank2_code;
	long tank1_dir = 0;
 8002754:	e03ff715 	stw	zero,-36(fp)
	long tank1_turret = 0;
 8002758:	e03ff815 	stw	zero,-32(fp)
	long tank2_dir = 0;
 800275c:	e03ff915 	stw	zero,-28(fp)
	long tank2_turret = 0;
 8002760:	e03ffa15 	stw	zero,-24(fp)
	for (int i = 5; i >= 0; i--){
 8002764:	00800144 	movi	r2,5
 8002768:	e0bffb15 	stw	r2,-20(fp)
 800276c:	00009d06 	br	80029e4 <transfer_code+0x2a4>
		switch (keycode[i]){
 8002770:	e0bffb17 	ldw	r2,-20(fp)
 8002774:	e0ffff17 	ldw	r3,-4(fp)
 8002778:	1885883a 	add	r2,r3,r2
 800277c:	10800003 	ldbu	r2,0(r2)
 8002780:	10803fcc 	andi	r2,r2,255
 8002784:	1080201c 	xori	r2,r2,128
 8002788:	10bfe004 	addi	r2,r2,-128
 800278c:	10bfff04 	addi	r2,r2,-4
 8002790:	10c017e8 	cmpgeui	r3,r2,95
 8002794:	18008f1e 	bne	r3,zero,80029d4 <transfer_code+0x294>
 8002798:	100690ba 	slli	r3,r2,2
 800279c:	00820034 	movhi	r2,2048
 80027a0:	1089ec04 	addi	r2,r2,10160
 80027a4:	1885883a 	add	r2,r3,r2
 80027a8:	10800017 	ldw	r2,0(r2)
 80027ac:	1000683a 	jmp	r2
 80027b0:	0800292c 	andhi	zero,at,164
 80027b4:	080029d4 	ori	zero,at,167
 80027b8:	080029d4 	ori	zero,at,167
 80027bc:	08002950 	cmplti	zero,at,165
 80027c0:	080029d4 	ori	zero,at,167
 80027c4:	080029d4 	ori	zero,at,167
 80027c8:	080029d4 	ori	zero,at,167
 80027cc:	080029d4 	ori	zero,at,167
 80027d0:	080029d4 	ori	zero,at,167
 80027d4:	0800295c 	xori	zero,at,165
 80027d8:	08002968 	cmpgeui	zero,at,165
 80027dc:	080029d4 	ori	zero,at,167
 80027e0:	080029d4 	ori	zero,at,167
 80027e4:	080029d4 	ori	zero,at,167
 80027e8:	080029d4 	ori	zero,at,167
 80027ec:	080029d4 	ori	zero,at,167
 80027f0:	080029d4 	ori	zero,at,167
 80027f4:	080029d4 	ori	zero,at,167
 80027f8:	08002938 	rdprs	zero,at,164
 80027fc:	080029d4 	ori	zero,at,167
 8002800:	080029d4 	ori	zero,at,167
 8002804:	080029d4 	ori	zero,at,167
 8002808:	08002944 	addi	zero,at,165
 800280c:	080029d4 	ori	zero,at,167
 8002810:	080029d4 	ori	zero,at,167
 8002814:	080029d4 	ori	zero,at,167
 8002818:	080029d4 	ori	zero,at,167
 800281c:	080029d4 	ori	zero,at,167
 8002820:	080029d4 	ori	zero,at,167
 8002824:	080029d4 	ori	zero,at,167
 8002828:	080029d4 	ori	zero,at,167
 800282c:	080029d4 	ori	zero,at,167
 8002830:	080029d4 	ori	zero,at,167
 8002834:	080029d4 	ori	zero,at,167
 8002838:	080029d4 	ori	zero,at,167
 800283c:	080029d4 	ori	zero,at,167
 8002840:	080029d4 	ori	zero,at,167
 8002844:	080029d4 	ori	zero,at,167
 8002848:	080029d4 	ori	zero,at,167
 800284c:	080029d4 	ori	zero,at,167
 8002850:	08002974 	orhi	zero,at,165
 8002854:	080029d4 	ori	zero,at,167
 8002858:	080029d4 	ori	zero,at,167
 800285c:	080029d4 	ori	zero,at,167
 8002860:	080029d4 	ori	zero,at,167
 8002864:	080029d4 	ori	zero,at,167
 8002868:	080029d4 	ori	zero,at,167
 800286c:	080029d4 	ori	zero,at,167
 8002870:	080029d4 	ori	zero,at,167
 8002874:	080029d4 	ori	zero,at,167
 8002878:	080029d4 	ori	zero,at,167
 800287c:	080029d4 	ori	zero,at,167
 8002880:	080029d4 	ori	zero,at,167
 8002884:	080029d4 	ori	zero,at,167
 8002888:	080029d4 	ori	zero,at,167
 800288c:	080029d4 	ori	zero,at,167
 8002890:	080029d4 	ori	zero,at,167
 8002894:	080029d4 	ori	zero,at,167
 8002898:	080029d4 	ori	zero,at,167
 800289c:	080029d4 	ori	zero,at,167
 80028a0:	080029d4 	ori	zero,at,167
 80028a4:	080029d4 	ori	zero,at,167
 80028a8:	080029d4 	ori	zero,at,167
 80028ac:	080029d4 	ori	zero,at,167
 80028b0:	080029d4 	ori	zero,at,167
 80028b4:	080029d4 	ori	zero,at,167
 80028b8:	080029d4 	ori	zero,at,167
 80028bc:	080029d4 	ori	zero,at,167
 80028c0:	080029d4 	ori	zero,at,167
 80028c4:	080029d4 	ori	zero,at,167
 80028c8:	080029d4 	ori	zero,at,167
 80028cc:	080029d4 	ori	zero,at,167
 80028d0:	080029d4 	ori	zero,at,167
 80028d4:	080029d4 	ori	zero,at,167
 80028d8:	080029d4 	ori	zero,at,167
 80028dc:	080029a4 	muli	zero,at,166
 80028e0:	08002980 	call	800298 <__alt_mem_onchip_memory2_0+0x800298>
 80028e4:	0800298c 	andi	zero,at,166
 80028e8:	08002998 	cmpnei	zero,at,166
 80028ec:	080029d4 	ori	zero,at,167
 80028f0:	080029d4 	ori	zero,at,167
 80028f4:	080029d4 	ori	zero,at,167
 80028f8:	080029d4 	ori	zero,at,167
 80028fc:	080029d4 	ori	zero,at,167
 8002900:	080029d4 	ori	zero,at,167
 8002904:	080029b0 	cmpltui	zero,at,166
 8002908:	080029bc 	xorhi	zero,at,166
 800290c:	080029d4 	ori	zero,at,167
 8002910:	080029d4 	ori	zero,at,167
 8002914:	080029d4 	ori	zero,at,167
 8002918:	080029d4 	ori	zero,at,167
 800291c:	080029d4 	ori	zero,at,167
 8002920:	080029d4 	ori	zero,at,167
 8002924:	080029d4 	ori	zero,at,167
 8002928:	080029c8 	cmpgei	zero,at,167
			// A
			case 0x4: 
				tank1_dir = 0x1;
 800292c:	00800044 	movi	r2,1
 8002930:	e0bff715 	stw	r2,-36(fp)
				break;
 8002934:	00002806 	br	80029d8 <transfer_code+0x298>
			// S
			case 0x16:
				tank1_dir = 0x2;
 8002938:	00800084 	movi	r2,2
 800293c:	e0bff715 	stw	r2,-36(fp)
				break;
 8002940:	00002506 	br	80029d8 <transfer_code+0x298>
			// W
			case 0x1a:
				tank1_dir = 0x3;
 8002944:	008000c4 	movi	r2,3
 8002948:	e0bff715 	stw	r2,-36(fp)
				break;
 800294c:	00002206 	br	80029d8 <transfer_code+0x298>
			// D
			case 0x07:
				tank1_dir = 0x4;
 8002950:	00800104 	movi	r2,4
 8002954:	e0bff715 	stw	r2,-36(fp)
				break;
 8002958:	00001f06 	br	80029d8 <transfer_code+0x298>
			// J
			case 0xd:
				tank1_turret = 0x1;
 800295c:	00800044 	movi	r2,1
 8002960:	e0bff815 	stw	r2,-32(fp)
				break;
 8002964:	00001c06 	br	80029d8 <transfer_code+0x298>
			// K
			case 0xe:
				tank1_turret = 0x2;
 8002968:	00800084 	movi	r2,2
 800296c:	e0bff815 	stw	r2,-32(fp)
				break;
 8002970:	00001906 	br	80029d8 <transfer_code+0x298>
			// space 
			case 0x2c: // fire
				tank1_turret = 0x3;
 8002974:	008000c4 	movi	r2,3
 8002978:	e0bff815 	stw	r2,-32(fp)
				break;
 800297c:	00001606 	br	80029d8 <transfer_code+0x298>
			// LEFT
			case 0x50:
				tank2_dir = 0x1;
 8002980:	00800044 	movi	r2,1
 8002984:	e0bff915 	stw	r2,-28(fp)
				break;
 8002988:	00001306 	br	80029d8 <transfer_code+0x298>
			// DOWN
			case 0x51:
				tank2_dir = 0x2;
 800298c:	00800084 	movi	r2,2
 8002990:	e0bff915 	stw	r2,-28(fp)
				break;
 8002994:	00001006 	br	80029d8 <transfer_code+0x298>
			// UP
			case 0x52:
				tank2_dir = 0x3;
 8002998:	008000c4 	movi	r2,3
 800299c:	e0bff915 	stw	r2,-28(fp)
				break;
 80029a0:	00000d06 	br	80029d8 <transfer_code+0x298>
			// RIGHT
			case 0x4f:
				tank2_dir = 0x4;
 80029a4:	00800104 	movi	r2,4
 80029a8:	e0bff915 	stw	r2,-28(fp)
				break;
 80029ac:	00000a06 	br	80029d8 <transfer_code+0x298>
			// 1
			case 0x59:
				tank2_turret = 0x1;
 80029b0:	00800044 	movi	r2,1
 80029b4:	e0bffa15 	stw	r2,-24(fp)
				break;
 80029b8:	00000706 	br	80029d8 <transfer_code+0x298>
			// 2
			case 0x5a:
				tank2_turret = 0x2;
 80029bc:	00800084 	movi	r2,2
 80029c0:	e0bffa15 	stw	r2,-24(fp)
				break;
 80029c4:	00000406 	br	80029d8 <transfer_code+0x298>
			// 0
			case 0x62: // fire
				tank2_turret = 0x3;
 80029c8:	008000c4 	movi	r2,3
 80029cc:	e0bffa15 	stw	r2,-24(fp)
				break;
 80029d0:	00000106 	br	80029d8 <transfer_code+0x298>
			default: 
				break;
 80029d4:	0001883a 	nop
	long tank1_code, tank2_code;
	long tank1_dir = 0;
	long tank1_turret = 0;
	long tank2_dir = 0;
	long tank2_turret = 0;
	for (int i = 5; i >= 0; i--){
 80029d8:	e0bffb17 	ldw	r2,-20(fp)
 80029dc:	10bfffc4 	addi	r2,r2,-1
 80029e0:	e0bffb15 	stw	r2,-20(fp)
 80029e4:	e0bffb17 	ldw	r2,-20(fp)
 80029e8:	103f610e 	bge	r2,zero,8002770 <__alt_data_end+0xfc002770>
				break;
			default: 
				break;
		}
	}
	tank1_code = tank1_dir << 8 | tank1_turret;
 80029ec:	e0bff717 	ldw	r2,-36(fp)
 80029f0:	1006923a 	slli	r3,r2,8
 80029f4:	e0bff817 	ldw	r2,-32(fp)
 80029f8:	1884b03a 	or	r2,r3,r2
 80029fc:	e0bffc15 	stw	r2,-16(fp)
	tank2_code = tank2_dir << 8 | tank2_turret;
 8002a00:	e0bff917 	ldw	r2,-28(fp)
 8002a04:	1006923a 	slli	r3,r2,8
 8002a08:	e0bffa17 	ldw	r2,-24(fp)
 8002a0c:	1884b03a 	or	r2,r3,r2
 8002a10:	e0bffd15 	stw	r2,-12(fp)
	final_code = tank1_code << 16 | tank2_code;
 8002a14:	e0bffc17 	ldw	r2,-16(fp)
 8002a18:	1006943a 	slli	r3,r2,16
 8002a1c:	e0bffd17 	ldw	r2,-12(fp)
 8002a20:	1884b03a 	or	r2,r3,r2
 8002a24:	e0bffe15 	stw	r2,-8(fp)
	printf("\ntank1_turret: %x, tank2_turret: %x, tank1_base: %x, tank2_base: %x, final_code: %x\n", tank1_turret, tank2_turret, tank1_dir, tank2_dir, final_code);
 8002a28:	e0bffe17 	ldw	r2,-8(fp)
 8002a2c:	d8800115 	stw	r2,4(sp)
 8002a30:	e0bff917 	ldw	r2,-28(fp)
 8002a34:	d8800015 	stw	r2,0(sp)
 8002a38:	e1fff717 	ldw	r7,-36(fp)
 8002a3c:	e1bffa17 	ldw	r6,-24(fp)
 8002a40:	e17ff817 	ldw	r5,-32(fp)
 8002a44:	010200b4 	movhi	r4,2050
 8002a48:	212c0104 	addi	r4,r4,-20476
 8002a4c:	8005b4c0 	call	8005b4c <printf>
	return final_code;
 8002a50:	e0bffe17 	ldw	r2,-8(fp)
}
 8002a54:	e037883a 	mov	sp,fp
 8002a58:	dfc00117 	ldw	ra,4(sp)
 8002a5c:	df000017 	ldw	fp,0(sp)
 8002a60:	dec00204 	addi	sp,sp,8
 8002a64:	f800283a 	ret

08002a68 <main>:


 #ifndef RUN_TEST
int main() {
 8002a68:	defff604 	addi	sp,sp,-40
 8002a6c:	dfc00915 	stw	ra,36(sp)
 8002a70:	df000815 	stw	fp,32(sp)
 8002a74:	df000804 	addi	fp,sp,32
	BYTE rcode;
	BOOT_MOUSE_REPORT buf;		//USB mouse report
	BOOT_KBD_REPORT kbdbuf;

	BYTE runningdebugflag = 0;//flag to dump out a bunch of information when we first get to USB_STATE_RUNNING
 8002a78:	e03ff805 	stb	zero,-32(fp)
	BYTE errorflag = 0; //flag once we get an error device so we don't keep dumping out state info
 8002a7c:	e03ff845 	stb	zero,-31(fp)
	WORD keycode;
	long code;

	int i;

	printf("initializing MAX3421E...\n");
 8002a80:	010200b4 	movhi	r4,2050
 8002a84:	212c1704 	addi	r4,r4,-20388
 8002a88:	8005c680 	call	8005c68 <puts>
	MAX3421E_init();
 8002a8c:	80047680 	call	8004768 <MAX3421E_init>
	printf("initializing USB...\n");
 8002a90:	010200b4 	movhi	r4,2050
 8002a94:	212c1e04 	addi	r4,r4,-20360
 8002a98:	8005c680 	call	8005c68 <puts>
	USB_init();
 8002a9c:	8004f140 	call	8004f14 <USB_init>

	text_VGA_init();
 8002aa0:	80035c80 	call	80035c8 <text_VGA_init>
	game_init();
 8002aa4:	80002e40 	call	80002e4 <game_init>
	show_menu(START, 0);
 8002aa8:	000b883a 	mov	r5,zero
 8002aac:	01000044 	movi	r4,1
 8002ab0:	80003f40 	call	80003f4 <show_menu>
	// initialize menu state and last key
	menu_state = 0;
 8002ab4:	d0282415 	stw	zero,-24432(gp)
	last_key = 0;
 8002ab8:	d0282505 	stb	zero,-24428(gp)

	while (1) {
		printf(".");
 8002abc:	01000b84 	movi	r4,46
 8002ac0:	8005b900 	call	8005b90 <putchar>
		MAX3421E_Task();
 8002ac4:	80047fc0 	call	80047fc <MAX3421E_Task>
		USB_Task();
 8002ac8:	8004fac0 	call	8004fac <USB_Task>
//		printf("%d\n",MAXreg_rd(0x12));

//			for(i=0;i<100000;i++);
//		usleep (500000);
		if (GetUsbTaskState() == USB_STATE_RUNNING) {
 8002acc:	800571c0 	call	800571c <GetUsbTaskState>
 8002ad0:	10803fcc 	andi	r2,r2,255
 8002ad4:	10801018 	cmpnei	r2,r2,64
 8002ad8:	1000c01e 	bne	r2,zero,8002ddc <main+0x374>
			if (!runningdebugflag) {
 8002adc:	e0bff803 	ldbu	r2,-32(fp)
 8002ae0:	1000071e 	bne	r2,zero,8002b00 <main+0x98>
				runningdebugflag = 1;
 8002ae4:	00800044 	movi	r2,1
 8002ae8:	e0bff805 	stb	r2,-32(fp)
				setLED(9);
 8002aec:	01000244 	movi	r4,9
 8002af0:	8002e6c0 	call	8002e6c <setLED>
				device = GetDriverandReport();
 8002af4:	800251c0 	call	800251c <GetDriverandReport>
 8002af8:	e0bff885 	stb	r2,-30(fp)
 8002afc:	003fef06 	br	8002abc <__alt_data_end+0xfc002abc>
			} else if (device == 1) {
 8002b00:	e0bff883 	ldbu	r2,-30(fp)
 8002b04:	10800058 	cmpnei	r2,r2,1
 8002b08:	1000581e 	bne	r2,zero,8002c6c <main+0x204>
				//run keyboard debug polling
				rcode = kbdPoll(&kbdbuf);
 8002b0c:	e0bffe04 	addi	r2,fp,-8
 8002b10:	1009883a 	mov	r4,r2
 8002b14:	800414c0 	call	800414c <kbdPoll>
 8002b18:	e0bffa05 	stb	r2,-24(fp)
				if (rcode == hrNAK) {
 8002b1c:	e0bffa03 	ldbu	r2,-24(fp)
 8002b20:	10800118 	cmpnei	r2,r2,4
 8002b24:	1000cd26 	beq	r2,zero,8002e5c <main+0x3f4>
					continue; //NAK means no new data
				} else if (rcode) {
 8002b28:	e0bffa03 	ldbu	r2,-24(fp)
 8002b2c:	10000926 	beq	r2,zero,8002b54 <main+0xec>
					printf("Rcode: ");
 8002b30:	010200b4 	movhi	r4,2050
 8002b34:	212c2304 	addi	r4,r4,-20340
 8002b38:	8005b4c0 	call	8005b4c <printf>
					printf("%x \n", rcode);
 8002b3c:	e0bffa03 	ldbu	r2,-24(fp)
 8002b40:	100b883a 	mov	r5,r2
 8002b44:	010200b4 	movhi	r4,2050
 8002b48:	212bef04 	addi	r4,r4,-20548
 8002b4c:	8005b4c0 	call	8005b4c <printf>
					continue;
 8002b50:	0000c506 	br	8002e68 <main+0x400>
				}
				printf("keycodes: ");
 8002b54:	010200b4 	movhi	r4,2050
 8002b58:	212c2504 	addi	r4,r4,-20332
 8002b5c:	8005b4c0 	call	8005b4c <printf>
				for (int i = 0; i < 6; i++) {
 8002b60:	e03ff915 	stw	zero,-28(fp)
 8002b64:	00000c06 	br	8002b98 <main+0x130>
					printf("%x ", kbdbuf.keycode[i]);
 8002b68:	e0fffe84 	addi	r3,fp,-6
 8002b6c:	e0bff917 	ldw	r2,-28(fp)
 8002b70:	1885883a 	add	r2,r3,r2
 8002b74:	10800003 	ldbu	r2,0(r2)
 8002b78:	10803fcc 	andi	r2,r2,255
 8002b7c:	100b883a 	mov	r5,r2
 8002b80:	010200b4 	movhi	r4,2050
 8002b84:	212c2804 	addi	r4,r4,-20320
 8002b88:	8005b4c0 	call	8005b4c <printf>
					printf("Rcode: ");
					printf("%x \n", rcode);
					continue;
				}
				printf("keycodes: ");
				for (int i = 0; i < 6; i++) {
 8002b8c:	e0bff917 	ldw	r2,-28(fp)
 8002b90:	10800044 	addi	r2,r2,1
 8002b94:	e0bff915 	stw	r2,-28(fp)
 8002b98:	e0bff917 	ldw	r2,-28(fp)
 8002b9c:	10800190 	cmplti	r2,r2,6
 8002ba0:	103ff11e 	bne	r2,zero,8002b68 <__alt_data_end+0xfc002b68>
					printf("%x ", kbdbuf.keycode[i]);
				}
				// setKeycode(kbdbuf.keycode[0]);
				// write the key code to the ram
				if((vga_ctrl->game_attr & 1)) {
 8002ba4:	d0a00117 	ldw	r2,-32764(gp)
 8002ba8:	10880917 	ldw	r2,8228(r2)
 8002bac:	1080004c 	andi	r2,r2,1
 8002bb0:	10001b26 	beq	r2,zero,8002c20 <main+0x1b8>
					if(vga_ctrl->health[0] == 0 || vga_ctrl->health[1] == 0 || 
 8002bb4:	d0a00117 	ldw	r2,-32764(gp)
 8002bb8:	10880d17 	ldw	r2,8244(r2)
 8002bbc:	10000b26 	beq	r2,zero,8002bec <main+0x184>
 8002bc0:	d0a00117 	ldw	r2,-32764(gp)
 8002bc4:	10880e17 	ldw	r2,8248(r2)
 8002bc8:	10000826 	beq	r2,zero,8002bec <main+0x184>
					vga_ctrl->health[0] > 25 || vga_ctrl->health[1] > 25) {
 8002bcc:	d0a00117 	ldw	r2,-32764(gp)
 8002bd0:	10880d17 	ldw	r2,8244(r2)
					printf("%x ", kbdbuf.keycode[i]);
				}
				// setKeycode(kbdbuf.keycode[0]);
				// write the key code to the ram
				if((vga_ctrl->game_attr & 1)) {
					if(vga_ctrl->health[0] == 0 || vga_ctrl->health[1] == 0 || 
 8002bd4:	108006a8 	cmpgeui	r2,r2,26
 8002bd8:	1000041e 	bne	r2,zero,8002bec <main+0x184>
					vga_ctrl->health[0] > 25 || vga_ctrl->health[1] > 25) {
 8002bdc:	d0a00117 	ldw	r2,-32764(gp)
 8002be0:	10880e17 	ldw	r2,8248(r2)
 8002be4:	108006b0 	cmpltui	r2,r2,26
 8002be8:	1000021e 	bne	r2,zero,8002bf4 <main+0x18c>
						draw_score_panel();
 8002bec:	800149c0 	call	800149c <draw_score_panel>
 8002bf0:	00000f06 	br	8002c30 <main+0x1c8>
					} else {
						check_gears();
 8002bf4:	800217c0 	call	800217c <check_gears>
						draw_wall();
 8002bf8:	8000dec0 	call	8000dec <draw_wall>
						draw_status_bars();
 8002bfc:	80008680 	call	8000868 <draw_status_bars>
						code = transfer_code((char*)kbdbuf.keycode);
 8002c00:	e0bffe04 	addi	r2,fp,-8
 8002c04:	10800084 	addi	r2,r2,2
 8002c08:	1009883a 	mov	r4,r2
 8002c0c:	80027400 	call	8002740 <transfer_code>
 8002c10:	e0bffb15 	stw	r2,-20(fp)
						ramsetctl(code);
 8002c14:	e13ffb17 	ldw	r4,-20(fp)
 8002c18:	80034ec0 	call	80034ec <ramsetctl>
 8002c1c:	00000406 	br	8002c30 <main+0x1c8>
					}
				} else {
					menu_control((char*)kbdbuf.keycode);
 8002c20:	e0bffe04 	addi	r2,fp,-8
 8002c24:	10800084 	addi	r2,r2,2
 8002c28:	1009883a 	mov	r4,r2
 8002c2c:	8001a300 	call	8001a30 <menu_control>
				}

				printSignedHex0(kbdbuf.keycode[0]);
 8002c30:	e0bffe83 	ldbu	r2,-6(fp)
 8002c34:	10803fcc 	andi	r2,r2,255
 8002c38:	1080201c 	xori	r2,r2,128
 8002c3c:	10bfe004 	addi	r2,r2,-128
 8002c40:	1009883a 	mov	r4,r2
 8002c44:	8002ef80 	call	8002ef8 <printSignedHex0>
				printSignedHex1(kbdbuf.keycode[1]);
 8002c48:	e0bffec3 	ldbu	r2,-5(fp)
 8002c4c:	10803fcc 	andi	r2,r2,255
 8002c50:	1080201c 	xori	r2,r2,128
 8002c54:	10bfe004 	addi	r2,r2,-128
 8002c58:	1009883a 	mov	r4,r2
 8002c5c:	80030100 	call	8003010 <printSignedHex1>
				printf("\n");
 8002c60:	01000284 	movi	r4,10
 8002c64:	8005b900 	call	8005b90 <putchar>
 8002c68:	003f9406 	br	8002abc <__alt_data_end+0xfc002abc>
			}

			else if (device == 2) {
 8002c6c:	e0bff883 	ldbu	r2,-30(fp)
 8002c70:	10800098 	cmpnei	r2,r2,2
 8002c74:	103f911e 	bne	r2,zero,8002abc <__alt_data_end+0xfc002abc>
				rcode = mousePoll(&buf);
 8002c78:	e0bffc04 	addi	r2,fp,-16
 8002c7c:	1009883a 	mov	r4,r2
 8002c80:	80040c40 	call	80040c4 <mousePoll>
 8002c84:	e0bffa05 	stb	r2,-24(fp)
				if (rcode == hrNAK) {
 8002c88:	e0bffa03 	ldbu	r2,-24(fp)
 8002c8c:	10800118 	cmpnei	r2,r2,4
 8002c90:	10007426 	beq	r2,zero,8002e64 <main+0x3fc>
					//NAK means no new data
					continue;
				} else if (rcode) {
 8002c94:	e0bffa03 	ldbu	r2,-24(fp)
 8002c98:	10000926 	beq	r2,zero,8002cc0 <main+0x258>
					printf("Rcode: ");
 8002c9c:	010200b4 	movhi	r4,2050
 8002ca0:	212c2304 	addi	r4,r4,-20340
 8002ca4:	8005b4c0 	call	8005b4c <printf>
					printf("%x \n", rcode);
 8002ca8:	e0bffa03 	ldbu	r2,-24(fp)
 8002cac:	100b883a 	mov	r5,r2
 8002cb0:	010200b4 	movhi	r4,2050
 8002cb4:	212bef04 	addi	r4,r4,-20548
 8002cb8:	8005b4c0 	call	8005b4c <printf>
					continue;
 8002cbc:	00006a06 	br	8002e68 <main+0x400>
				}
				printf("X displacement: ");
 8002cc0:	010200b4 	movhi	r4,2050
 8002cc4:	212c2904 	addi	r4,r4,-20316
 8002cc8:	8005b4c0 	call	8005b4c <printf>
				printf("%d ", (signed char) buf.Xdispl);
 8002ccc:	e0bffc43 	ldbu	r2,-15(fp)
 8002cd0:	10803fcc 	andi	r2,r2,255
 8002cd4:	1080201c 	xori	r2,r2,128
 8002cd8:	10bfe004 	addi	r2,r2,-128
 8002cdc:	100b883a 	mov	r5,r2
 8002ce0:	010200b4 	movhi	r4,2050
 8002ce4:	212c2e04 	addi	r4,r4,-20296
 8002ce8:	8005b4c0 	call	8005b4c <printf>
				printSignedHex0((signed char) buf.Xdispl);
 8002cec:	e0bffc43 	ldbu	r2,-15(fp)
 8002cf0:	10803fcc 	andi	r2,r2,255
 8002cf4:	1080201c 	xori	r2,r2,128
 8002cf8:	10bfe004 	addi	r2,r2,-128
 8002cfc:	1009883a 	mov	r4,r2
 8002d00:	8002ef80 	call	8002ef8 <printSignedHex0>
				printf("Y displacement: ");
 8002d04:	010200b4 	movhi	r4,2050
 8002d08:	212c2f04 	addi	r4,r4,-20292
 8002d0c:	8005b4c0 	call	8005b4c <printf>
				printf("%d ", (signed char) buf.Ydispl);
 8002d10:	e0bffc83 	ldbu	r2,-14(fp)
 8002d14:	10803fcc 	andi	r2,r2,255
 8002d18:	1080201c 	xori	r2,r2,128
 8002d1c:	10bfe004 	addi	r2,r2,-128
 8002d20:	100b883a 	mov	r5,r2
 8002d24:	010200b4 	movhi	r4,2050
 8002d28:	212c2e04 	addi	r4,r4,-20296
 8002d2c:	8005b4c0 	call	8005b4c <printf>
				printSignedHex1((signed char) buf.Ydispl);
 8002d30:	e0bffc83 	ldbu	r2,-14(fp)
 8002d34:	10803fcc 	andi	r2,r2,255
 8002d38:	1080201c 	xori	r2,r2,128
 8002d3c:	10bfe004 	addi	r2,r2,-128
 8002d40:	1009883a 	mov	r4,r2
 8002d44:	80030100 	call	8003010 <printSignedHex1>
				printf("Buttons: ");
 8002d48:	010200b4 	movhi	r4,2050
 8002d4c:	212c3404 	addi	r4,r4,-20272
 8002d50:	8005b4c0 	call	8005b4c <printf>
				printf("%x\n", buf.button);
 8002d54:	e0bffc03 	ldbu	r2,-16(fp)
 8002d58:	10803fcc 	andi	r2,r2,255
 8002d5c:	100b883a 	mov	r5,r2
 8002d60:	010200b4 	movhi	r4,2050
 8002d64:	212c3704 	addi	r4,r4,-20260
 8002d68:	8005b4c0 	call	8005b4c <printf>
				if (buf.button & 0x04)
 8002d6c:	e0bffc03 	ldbu	r2,-16(fp)
 8002d70:	10803fcc 	andi	r2,r2,255
 8002d74:	1080010c 	andi	r2,r2,4
 8002d78:	10000326 	beq	r2,zero,8002d88 <main+0x320>
					setLED(2);
 8002d7c:	01000084 	movi	r4,2
 8002d80:	8002e6c0 	call	8002e6c <setLED>
 8002d84:	00000206 	br	8002d90 <main+0x328>
				else
					clearLED(2);
 8002d88:	01000084 	movi	r4,2
 8002d8c:	8002eb00 	call	8002eb0 <clearLED>
				if (buf.button & 0x02)
 8002d90:	e0bffc03 	ldbu	r2,-16(fp)
 8002d94:	10803fcc 	andi	r2,r2,255
 8002d98:	1080008c 	andi	r2,r2,2
 8002d9c:	10000326 	beq	r2,zero,8002dac <main+0x344>
					setLED(1);
 8002da0:	01000044 	movi	r4,1
 8002da4:	8002e6c0 	call	8002e6c <setLED>
 8002da8:	00000206 	br	8002db4 <main+0x34c>
				else
					clearLED(1);
 8002dac:	01000044 	movi	r4,1
 8002db0:	8002eb00 	call	8002eb0 <clearLED>
				if (buf.button & 0x01)
 8002db4:	e0bffc03 	ldbu	r2,-16(fp)
 8002db8:	10803fcc 	andi	r2,r2,255
 8002dbc:	1080004c 	andi	r2,r2,1
 8002dc0:	10000326 	beq	r2,zero,8002dd0 <main+0x368>
					setLED(0);
 8002dc4:	0009883a 	mov	r4,zero
 8002dc8:	8002e6c0 	call	8002e6c <setLED>
 8002dcc:	003f3b06 	br	8002abc <__alt_data_end+0xfc002abc>
				else
					clearLED(0);
 8002dd0:	0009883a 	mov	r4,zero
 8002dd4:	8002eb00 	call	8002eb0 <clearLED>
 8002dd8:	003f3806 	br	8002abc <__alt_data_end+0xfc002abc>
			}
		} else if (GetUsbTaskState() == USB_STATE_ERROR) {
 8002ddc:	800571c0 	call	800571c <GetUsbTaskState>
 8002de0:	10803fcc 	andi	r2,r2,255
 8002de4:	10803fd8 	cmpnei	r2,r2,255
 8002de8:	10000a1e 	bne	r2,zero,8002e14 <main+0x3ac>
			if (!errorflag) {
 8002dec:	e0bff843 	ldbu	r2,-31(fp)
 8002df0:	103f321e 	bne	r2,zero,8002abc <__alt_data_end+0xfc002abc>
				errorflag = 1;
 8002df4:	00800044 	movi	r2,1
 8002df8:	e0bff845 	stb	r2,-31(fp)
				clearLED(9);
 8002dfc:	01000244 	movi	r4,9
 8002e00:	8002eb00 	call	8002eb0 <clearLED>
				printf("USB Error State\n");
 8002e04:	010200b4 	movhi	r4,2050
 8002e08:	212c3804 	addi	r4,r4,-20256
 8002e0c:	8005c680 	call	8005c68 <puts>
 8002e10:	003f2a06 	br	8002abc <__alt_data_end+0xfc002abc>
				//print out string descriptor here
			}
		} else //not in USB running state
		{

			printf("USB task state: ");
 8002e14:	010200b4 	movhi	r4,2050
 8002e18:	212c3c04 	addi	r4,r4,-20240
 8002e1c:	8005b4c0 	call	8005b4c <printf>
			printf("%x\n", GetUsbTaskState());
 8002e20:	800571c0 	call	800571c <GetUsbTaskState>
 8002e24:	10803fcc 	andi	r2,r2,255
 8002e28:	100b883a 	mov	r5,r2
 8002e2c:	010200b4 	movhi	r4,2050
 8002e30:	212c3704 	addi	r4,r4,-20260
 8002e34:	8005b4c0 	call	8005b4c <printf>
			if (runningdebugflag) {	//previously running, reset USB hardware just to clear out any funky state, HS/FS etc
 8002e38:	e0bff803 	ldbu	r2,-32(fp)
 8002e3c:	10000326 	beq	r2,zero,8002e4c <main+0x3e4>
				runningdebugflag = 0;
 8002e40:	e03ff805 	stb	zero,-32(fp)
				MAX3421E_init();
 8002e44:	80047680 	call	8004768 <MAX3421E_init>
				USB_init();
 8002e48:	8004f140 	call	8004f14 <USB_init>
			}
			errorflag = 0;
 8002e4c:	e03ff845 	stb	zero,-31(fp)
			clearLED(9);
 8002e50:	01000244 	movi	r4,9
 8002e54:	8002eb00 	call	8002eb0 <clearLED>
 8002e58:	003f1806 	br	8002abc <__alt_data_end+0xfc002abc>
				device = GetDriverandReport();
			} else if (device == 1) {
				//run keyboard debug polling
				rcode = kbdPoll(&kbdbuf);
				if (rcode == hrNAK) {
					continue; //NAK means no new data
 8002e5c:	0001883a 	nop
 8002e60:	003f1606 	br	8002abc <__alt_data_end+0xfc002abc>

			else if (device == 2) {
				rcode = mousePoll(&buf);
				if (rcode == hrNAK) {
					//NAK means no new data
					continue;
 8002e64:	0001883a 	nop
			}
			errorflag = 0;
			clearLED(9);
		}

	}
 8002e68:	003f1406 	br	8002abc <__alt_data_end+0xfc002abc>

08002e6c <setLED>:
#define LEDS_PIO_BASE		 	LED_BASE
#define HEX_DIGITS_PIO_BASE 	HEX_BASE



void setLED(int LED) {
 8002e6c:	defffe04 	addi	sp,sp,-8
 8002e70:	df000115 	stw	fp,4(sp)
 8002e74:	df000104 	addi	fp,sp,4
 8002e78:	e13fff15 	stw	r4,-4(fp)
	IOWR_ALTERA_AVALON_PIO_DATA(LEDS_PIO_BASE,
 8002e7c:	00801004 	movi	r2,64
 8002e80:	10c00037 	ldwio	r3,0(r2)
 8002e84:	01000044 	movi	r4,1
 8002e88:	e0bfff17 	ldw	r2,-4(fp)
 8002e8c:	2084983a 	sll	r2,r4,r2
 8002e90:	1886b03a 	or	r3,r3,r2
 8002e94:	00801004 	movi	r2,64
 8002e98:	10c00035 	stwio	r3,0(r2)
			(IORD_ALTERA_AVALON_PIO_DATA(LEDS_PIO_BASE) | (0x001 << LED)));
}
 8002e9c:	0001883a 	nop
 8002ea0:	e037883a 	mov	sp,fp
 8002ea4:	df000017 	ldw	fp,0(sp)
 8002ea8:	dec00104 	addi	sp,sp,4
 8002eac:	f800283a 	ret

08002eb0 <clearLED>:

void clearLED(int LED) {
 8002eb0:	defffe04 	addi	sp,sp,-8
 8002eb4:	df000115 	stw	fp,4(sp)
 8002eb8:	df000104 	addi	fp,sp,4
 8002ebc:	e13fff15 	stw	r4,-4(fp)
	IOWR_ALTERA_AVALON_PIO_DATA(LEDS_PIO_BASE,
 8002ec0:	00801004 	movi	r2,64
 8002ec4:	10c00037 	ldwio	r3,0(r2)
 8002ec8:	01000044 	movi	r4,1
 8002ecc:	e0bfff17 	ldw	r2,-4(fp)
 8002ed0:	2084983a 	sll	r2,r4,r2
 8002ed4:	0084303a 	nor	r2,zero,r2
 8002ed8:	1886703a 	and	r3,r3,r2
 8002edc:	00801004 	movi	r2,64
 8002ee0:	10c00035 	stwio	r3,0(r2)
			(IORD_ALTERA_AVALON_PIO_DATA(LEDS_PIO_BASE) & ~(0x001 << LED)));

}
 8002ee4:	0001883a 	nop
 8002ee8:	e037883a 	mov	sp,fp
 8002eec:	df000017 	ldw	fp,0(sp)
 8002ef0:	dec00104 	addi	sp,sp,4
 8002ef4:	f800283a 	ret

08002ef8 <printSignedHex0>:

void printSignedHex0(signed char value) {
 8002ef8:	defffc04 	addi	sp,sp,-16
 8002efc:	dfc00315 	stw	ra,12(sp)
 8002f00:	df000215 	stw	fp,8(sp)
 8002f04:	df000204 	addi	fp,sp,8
 8002f08:	2005883a 	mov	r2,r4
 8002f0c:	e0bfff05 	stb	r2,-4(fp)
	BYTE tens = 0;
 8002f10:	e03ffe05 	stb	zero,-8(fp)
	BYTE ones = 0;
 8002f14:	e03ffe45 	stb	zero,-7(fp)
	WORD pio_val = IORD_ALTERA_AVALON_PIO_DATA(HEX_DIGITS_PIO_BASE);
 8002f18:	00802804 	movi	r2,160
 8002f1c:	10800037 	ldwio	r2,0(r2)
 8002f20:	e0bffe8d 	sth	r2,-6(fp)
	if (value < 0) {
 8002f24:	e0bfff07 	ldb	r2,-4(fp)
 8002f28:	1000060e 	bge	r2,zero,8002f44 <printSignedHex0+0x4c>
		setLED(11);
 8002f2c:	010002c4 	movi	r4,11
 8002f30:	8002e6c0 	call	8002e6c <setLED>
		value = -value;
 8002f34:	e0bfff03 	ldbu	r2,-4(fp)
 8002f38:	0085c83a 	sub	r2,zero,r2
 8002f3c:	e0bfff05 	stb	r2,-4(fp)
 8002f40:	00000206 	br	8002f4c <printSignedHex0+0x54>
	} else {
		clearLED(11);
 8002f44:	010002c4 	movi	r4,11
 8002f48:	8002eb00 	call	8002eb0 <clearLED>
	}
	//handled hundreds
	if (value / 100)
 8002f4c:	e0bfff03 	ldbu	r2,-4(fp)
 8002f50:	108018c4 	addi	r2,r2,99
 8002f54:	10803fcc 	andi	r2,r2,255
 8002f58:	108031f0 	cmpltui	r2,r2,199
 8002f5c:	1000031e 	bne	r2,zero,8002f6c <printSignedHex0+0x74>
		setLED(13);
 8002f60:	01000344 	movi	r4,13
 8002f64:	8002e6c0 	call	8002e6c <setLED>
 8002f68:	00000206 	br	8002f74 <printSignedHex0+0x7c>
	else
		clearLED(13);
 8002f6c:	01000344 	movi	r4,13
 8002f70:	8002eb00 	call	8002eb0 <clearLED>

	value = value % 100;
 8002f74:	e0bfff07 	ldb	r2,-4(fp)
 8002f78:	01401904 	movi	r5,100
 8002f7c:	1009883a 	mov	r4,r2
 8002f80:	800587c0 	call	800587c <__modsi3>
 8002f84:	e0bfff05 	stb	r2,-4(fp)
	tens = value / 10;
 8002f88:	e0bfff07 	ldb	r2,-4(fp)
 8002f8c:	01400284 	movi	r5,10
 8002f90:	1009883a 	mov	r4,r2
 8002f94:	80057f80 	call	80057f8 <__divsi3>
 8002f98:	e0bffe05 	stb	r2,-8(fp)
	ones = value % 10;
 8002f9c:	e0bfff07 	ldb	r2,-4(fp)
 8002fa0:	01400284 	movi	r5,10
 8002fa4:	1009883a 	mov	r4,r2
 8002fa8:	800587c0 	call	800587c <__modsi3>
 8002fac:	e0bffe45 	stb	r2,-7(fp)

	pio_val &= 0x00FF;
 8002fb0:	e0bffe8b 	ldhu	r2,-6(fp)
 8002fb4:	10803fcc 	andi	r2,r2,255
 8002fb8:	e0bffe8d 	sth	r2,-6(fp)
	pio_val |= (tens << 12);
 8002fbc:	e0bffe03 	ldbu	r2,-8(fp)
 8002fc0:	1004933a 	slli	r2,r2,12
 8002fc4:	1007883a 	mov	r3,r2
 8002fc8:	e0bffe8b 	ldhu	r2,-6(fp)
 8002fcc:	1884b03a 	or	r2,r3,r2
 8002fd0:	e0bffe8d 	sth	r2,-6(fp)
	pio_val |= (ones << 8);
 8002fd4:	e0bffe43 	ldbu	r2,-7(fp)
 8002fd8:	1004923a 	slli	r2,r2,8
 8002fdc:	1007883a 	mov	r3,r2
 8002fe0:	e0bffe8b 	ldhu	r2,-6(fp)
 8002fe4:	1884b03a 	or	r2,r3,r2
 8002fe8:	e0bffe8d 	sth	r2,-6(fp)

	IOWR_ALTERA_AVALON_PIO_DATA(HEX_DIGITS_PIO_BASE, pio_val);
 8002fec:	e0fffe8b 	ldhu	r3,-6(fp)
 8002ff0:	00802804 	movi	r2,160
 8002ff4:	10c00035 	stwio	r3,0(r2)
}
 8002ff8:	0001883a 	nop
 8002ffc:	e037883a 	mov	sp,fp
 8003000:	dfc00117 	ldw	ra,4(sp)
 8003004:	df000017 	ldw	fp,0(sp)
 8003008:	dec00204 	addi	sp,sp,8
 800300c:	f800283a 	ret

08003010 <printSignedHex1>:

void printSignedHex1(signed char value) {
 8003010:	defffb04 	addi	sp,sp,-20
 8003014:	dfc00415 	stw	ra,16(sp)
 8003018:	df000315 	stw	fp,12(sp)
 800301c:	df000304 	addi	fp,sp,12
 8003020:	2005883a 	mov	r2,r4
 8003024:	e0bfff05 	stb	r2,-4(fp)
	BYTE tens = 0;
 8003028:	e03ffd05 	stb	zero,-12(fp)
	BYTE ones = 0;
 800302c:	e03ffd45 	stb	zero,-11(fp)
	DWORD pio_val = IORD_ALTERA_AVALON_PIO_DATA(HEX_DIGITS_PIO_BASE);
 8003030:	00802804 	movi	r2,160
 8003034:	10800037 	ldwio	r2,0(r2)
 8003038:	e0bffe15 	stw	r2,-8(fp)
	if (value < 0) {
 800303c:	e0bfff07 	ldb	r2,-4(fp)
 8003040:	1000060e 	bge	r2,zero,800305c <printSignedHex1+0x4c>
		setLED(10);
 8003044:	01000284 	movi	r4,10
 8003048:	8002e6c0 	call	8002e6c <setLED>
		value = -value;
 800304c:	e0bfff03 	ldbu	r2,-4(fp)
 8003050:	0085c83a 	sub	r2,zero,r2
 8003054:	e0bfff05 	stb	r2,-4(fp)
 8003058:	00000206 	br	8003064 <printSignedHex1+0x54>
	} else {
		clearLED(10);
 800305c:	01000284 	movi	r4,10
 8003060:	8002eb00 	call	8002eb0 <clearLED>
	}
	//handled hundreds
	if (value / 100)
 8003064:	e0bfff03 	ldbu	r2,-4(fp)
 8003068:	108018c4 	addi	r2,r2,99
 800306c:	10803fcc 	andi	r2,r2,255
 8003070:	108031f0 	cmpltui	r2,r2,199
 8003074:	1000031e 	bne	r2,zero,8003084 <printSignedHex1+0x74>
		setLED(12);
 8003078:	01000304 	movi	r4,12
 800307c:	8002e6c0 	call	8002e6c <setLED>
 8003080:	00000206 	br	800308c <printSignedHex1+0x7c>
	else
		clearLED(12);
 8003084:	01000304 	movi	r4,12
 8003088:	8002eb00 	call	8002eb0 <clearLED>

	value = value % 100;
 800308c:	e0bfff07 	ldb	r2,-4(fp)
 8003090:	01401904 	movi	r5,100
 8003094:	1009883a 	mov	r4,r2
 8003098:	800587c0 	call	800587c <__modsi3>
 800309c:	e0bfff05 	stb	r2,-4(fp)
	tens = value / 10;
 80030a0:	e0bfff07 	ldb	r2,-4(fp)
 80030a4:	01400284 	movi	r5,10
 80030a8:	1009883a 	mov	r4,r2
 80030ac:	80057f80 	call	80057f8 <__divsi3>
 80030b0:	e0bffd05 	stb	r2,-12(fp)
	ones = value % 10;
 80030b4:	e0bfff07 	ldb	r2,-4(fp)
 80030b8:	01400284 	movi	r5,10
 80030bc:	1009883a 	mov	r4,r2
 80030c0:	800587c0 	call	800587c <__modsi3>
 80030c4:	e0bffd45 	stb	r2,-11(fp)
	tens = value / 10;
 80030c8:	e0bfff07 	ldb	r2,-4(fp)
 80030cc:	01400284 	movi	r5,10
 80030d0:	1009883a 	mov	r4,r2
 80030d4:	80057f80 	call	80057f8 <__divsi3>
 80030d8:	e0bffd05 	stb	r2,-12(fp)
	ones = value % 10;
 80030dc:	e0bfff07 	ldb	r2,-4(fp)
 80030e0:	01400284 	movi	r5,10
 80030e4:	1009883a 	mov	r4,r2
 80030e8:	800587c0 	call	800587c <__modsi3>
 80030ec:	e0bffd45 	stb	r2,-11(fp)

	pio_val &= 0xFF00;
 80030f0:	e0bffe17 	ldw	r2,-8(fp)
 80030f4:	10bfc00c 	andi	r2,r2,65280
 80030f8:	e0bffe15 	stw	r2,-8(fp)
	pio_val |= (tens << 4);
 80030fc:	e0bffd03 	ldbu	r2,-12(fp)
 8003100:	1004913a 	slli	r2,r2,4
 8003104:	1007883a 	mov	r3,r2
 8003108:	e0bffe17 	ldw	r2,-8(fp)
 800310c:	10c4b03a 	or	r2,r2,r3
 8003110:	e0bffe15 	stw	r2,-8(fp)
	pio_val |= (ones << 0);
 8003114:	e0bffd43 	ldbu	r2,-11(fp)
 8003118:	e0fffe17 	ldw	r3,-8(fp)
 800311c:	1884b03a 	or	r2,r3,r2
 8003120:	e0bffe15 	stw	r2,-8(fp)

	IOWR_ALTERA_AVALON_PIO_DATA(HEX_DIGITS_PIO_BASE, pio_val);
 8003124:	e0fffe17 	ldw	r3,-8(fp)
 8003128:	00802804 	movi	r2,160
 800312c:	10c00035 	stwio	r3,0(r2)
}
 8003130:	0001883a 	nop
 8003134:	e037883a 	mov	sp,fp
 8003138:	dfc00117 	ldw	ra,4(sp)
 800313c:	df000017 	ldw	fp,0(sp)
 8003140:	dec00204 	addi	sp,sp,8
 8003144:	f800283a 	ret

08003148 <SGTL5000_Reg_Rd>:
#include "sgtl5000.h"
#include "altera_avalon_i2c.h"
#include "altera_avalon_i2c_regs.h"

WORD SGTL5000_Reg_Rd (ALT_AVALON_I2C_DEV_t* dev, WORD ADDR)
{
 8003148:	defff804 	addi	sp,sp,-32
 800314c:	dfc00715 	stw	ra,28(sp)
 8003150:	df000615 	stw	fp,24(sp)
 8003154:	df000604 	addi	fp,sp,24
 8003158:	e13ffe15 	stw	r4,-8(fp)
 800315c:	2805883a 	mov	r2,r5
 8003160:	e0bfff0d 	sth	r2,-4(fp)
	BYTE buffer[2];
	WORD value;
	buffer[0] = (ADDR & 0xFF00) >> 8;
 8003164:	e0bfff0b 	ldhu	r2,-4(fp)
 8003168:	1004d23a 	srli	r2,r2,8
 800316c:	e0bffd85 	stb	r2,-10(fp)
	buffer[1] = (ADDR & 0x00FF);
 8003170:	e0bfff0b 	ldhu	r2,-4(fp)
 8003174:	e0bffdc5 	stb	r2,-9(fp)

	ALT_AVALON_I2C_STATUS_CODE status=alt_avalon_i2c_master_tx_rx(dev,buffer,2,buffer,2,0);
 8003178:	e13ffd84 	addi	r4,fp,-10
 800317c:	e0fffd84 	addi	r3,fp,-10
 8003180:	d8000115 	stw	zero,4(sp)
 8003184:	00800084 	movi	r2,2
 8003188:	d8800015 	stw	r2,0(sp)
 800318c:	200f883a 	mov	r7,r4
 8003190:	01800084 	movi	r6,2
 8003194:	180b883a 	mov	r5,r3
 8003198:	e13ffe17 	ldw	r4,-8(fp)
 800319c:	801811c0 	call	801811c <alt_avalon_i2c_master_tx_rx>
 80031a0:	e0bffc15 	stw	r2,-16(fp)

	if (status != ALT_AVALON_I2C_SUCCESS){
 80031a4:	e0bffc17 	ldw	r2,-16(fp)
 80031a8:	10000626 	beq	r2,zero,80031c4 <SGTL5000_Reg_Rd+0x7c>
		printf ("SGTL5000 I2C error, address: %x", ADDR);
 80031ac:	e0bfff0b 	ldhu	r2,-4(fp)
 80031b0:	100b883a 	mov	r5,r2
 80031b4:	010200b4 	movhi	r4,2050
 80031b8:	212c4104 	addi	r4,r4,-20220
 80031bc:	8005b4c0 	call	8005b4c <printf>
		while (1)
		{
			//hang here
		}
 80031c0:	003fff06 	br	80031c0 <__alt_data_end+0xfc0031c0>
	}
	value = (buffer[0] << 8) | buffer[1];
 80031c4:	e0bffd83 	ldbu	r2,-10(fp)
 80031c8:	10803fcc 	andi	r2,r2,255
 80031cc:	1004923a 	slli	r2,r2,8
 80031d0:	1007883a 	mov	r3,r2
 80031d4:	e0bffdc3 	ldbu	r2,-9(fp)
 80031d8:	10803fcc 	andi	r2,r2,255
 80031dc:	1884b03a 	or	r2,r3,r2
 80031e0:	e0bffd0d 	sth	r2,-12(fp)
	return value;
 80031e4:	e0bffd0b 	ldhu	r2,-12(fp)
}
 80031e8:	e037883a 	mov	sp,fp
 80031ec:	dfc00117 	ldw	ra,4(sp)
 80031f0:	df000017 	ldw	fp,0(sp)
 80031f4:	dec00204 	addi	sp,sp,8
 80031f8:	f800283a 	ret

080031fc <SGTL5000_Reg_Wr>:

WORD SGTL5000_Reg_Wr (ALT_AVALON_I2C_DEV_t* dev, WORD ADDR, WORD DATA)
{
 80031fc:	defff904 	addi	sp,sp,-28
 8003200:	dfc00615 	stw	ra,24(sp)
 8003204:	df000515 	stw	fp,20(sp)
 8003208:	df000504 	addi	fp,sp,20
 800320c:	e13ffd15 	stw	r4,-12(fp)
 8003210:	2807883a 	mov	r3,r5
 8003214:	3005883a 	mov	r2,r6
 8003218:	e0fffe0d 	sth	r3,-8(fp)
 800321c:	e0bfff0d 	sth	r2,-4(fp)
	BYTE buffer[4];
	buffer[0] = (ADDR & 0xFF00) >> 8;
 8003220:	e0bffe0b 	ldhu	r2,-8(fp)
 8003224:	1004d23a 	srli	r2,r2,8
 8003228:	e0bffc05 	stb	r2,-16(fp)
	buffer[1] = (ADDR & 0x00FF);
 800322c:	e0bffe0b 	ldhu	r2,-8(fp)
 8003230:	e0bffc45 	stb	r2,-15(fp)
	buffer[2] = (DATA & 0xFF00) >> 8;
 8003234:	e0bfff0b 	ldhu	r2,-4(fp)
 8003238:	1004d23a 	srli	r2,r2,8
 800323c:	e0bffc85 	stb	r2,-14(fp)
	buffer[3] = (DATA & 0x00FF);
 8003240:	e0bfff0b 	ldhu	r2,-4(fp)
 8003244:	e0bffcc5 	stb	r2,-13(fp)


	ALT_AVALON_I2C_STATUS_CODE status=alt_avalon_i2c_master_tx(dev,buffer,4,0);
 8003248:	e0bffc04 	addi	r2,fp,-16
 800324c:	000f883a 	mov	r7,zero
 8003250:	01800104 	movi	r6,4
 8003254:	100b883a 	mov	r5,r2
 8003258:	e13ffd17 	ldw	r4,-12(fp)
 800325c:	8017ef80 	call	8017ef8 <alt_avalon_i2c_master_tx>
 8003260:	e0bffb15 	stw	r2,-20(fp)

	if (status != ALT_AVALON_I2C_SUCCESS){
 8003264:	e0bffb17 	ldw	r2,-20(fp)
 8003268:	10000626 	beq	r2,zero,8003284 <SGTL5000_Reg_Wr+0x88>
		printf ("SGTL5000 I2C error, address: %x", ADDR);
 800326c:	e0bffe0b 	ldhu	r2,-8(fp)
 8003270:	100b883a 	mov	r5,r2
 8003274:	010200b4 	movhi	r4,2050
 8003278:	212c4104 	addi	r4,r4,-20220
 800327c:	8005b4c0 	call	8005b4c <printf>
		while (1)
		{
			//hang here
		}
 8003280:	003fff06 	br	8003280 <__alt_data_end+0xfc003280>
	}
	return DATA;
 8003284:	e0bfff0b 	ldhu	r2,-4(fp)
}
 8003288:	e037883a 	mov	sp,fp
 800328c:	dfc00117 	ldw	ra,4(sp)
 8003290:	df000017 	ldw	fp,0(sp)
 8003294:	dec00204 	addi	sp,sp,8
 8003298:	f800283a 	ret

0800329c <textVGAColorClr>:
#include <alt_types.h>
#include "text_mode_vga.h"
#include "game.h"

void textVGAColorClr()
{
 800329c:	defffe04 	addi	sp,sp,-8
 80032a0:	df000115 	stw	fp,4(sp)
 80032a4:	df000104 	addi	fp,sp,4
	for (int i = 0; i<(ROWS*COLUMNS) * 2; i++)
 80032a8:	e03fff15 	stw	zero,-4(fp)
 80032ac:	00000706 	br	80032cc <textVGAColorClr+0x30>
	{
			vga_ctrl->VRAM[i] = 0x00;
 80032b0:	d0e00417 	ldw	r3,-32752(gp)
 80032b4:	e0bfff17 	ldw	r2,-4(fp)
 80032b8:	1885883a 	add	r2,r3,r2
 80032bc:	10000005 	stb	zero,0(r2)
#include "text_mode_vga.h"
#include "game.h"

void textVGAColorClr()
{
	for (int i = 0; i<(ROWS*COLUMNS) * 2; i++)
 80032c0:	e0bfff17 	ldw	r2,-4(fp)
 80032c4:	10800044 	addi	r2,r2,1
 80032c8:	e0bfff15 	stw	r2,-4(fp)
 80032cc:	e0bfff17 	ldw	r2,-4(fp)
 80032d0:	1084b010 	cmplti	r2,r2,4800
 80032d4:	103ff61e 	bne	r2,zero,80032b0 <__alt_data_end+0xfc0032b0>
	{
			vga_ctrl->VRAM[i] = 0x00;
	}
}
 80032d8:	0001883a 	nop
 80032dc:	e037883a 	mov	sp,fp
 80032e0:	df000017 	ldw	fp,0(sp)
 80032e4:	dec00104 	addi	sp,sp,4
 80032e8:	f800283a 	ret

080032ec <textVGADrawColorText>:

void textVGADrawColorText(char* str, int x, int y, alt_u8 background, alt_u8 foreground)
{
 80032ec:	defff704 	addi	sp,sp,-36
 80032f0:	dfc00815 	stw	ra,32(sp)
 80032f4:	df000715 	stw	fp,28(sp)
 80032f8:	dc000615 	stw	r16,24(sp)
 80032fc:	df000704 	addi	fp,sp,28
 8003300:	e13ffa15 	stw	r4,-24(fp)
 8003304:	e17ffb15 	stw	r5,-20(fp)
 8003308:	e1bffc15 	stw	r6,-16(fp)
 800330c:	3807883a 	mov	r3,r7
 8003310:	e0800217 	ldw	r2,8(fp)
 8003314:	e0fffd05 	stb	r3,-12(fp)
 8003318:	e0bffe05 	stb	r2,-8(fp)
	int i = 0;
 800331c:	e03ff915 	stw	zero,-28(fp)
	while (str[i]!=0)
 8003320:	00002706 	br	80033c0 <textVGADrawColorText+0xd4>
	{
		vga_ctrl->VRAM[(y*COLUMNS + x + i) * 2] = foreground << 4 | background;
 8003324:	d4200417 	ldw	r16,-32752(gp)
 8003328:	01401404 	movi	r5,80
 800332c:	e13ffc17 	ldw	r4,-16(fp)
 8003330:	80059ac0 	call	80059ac <__mulsi3>
 8003334:	1007883a 	mov	r3,r2
 8003338:	e0bffb17 	ldw	r2,-20(fp)
 800333c:	1887883a 	add	r3,r3,r2
 8003340:	e0bff917 	ldw	r2,-28(fp)
 8003344:	1885883a 	add	r2,r3,r2
 8003348:	1085883a 	add	r2,r2,r2
 800334c:	1009883a 	mov	r4,r2
 8003350:	e0bffe03 	ldbu	r2,-8(fp)
 8003354:	1004913a 	slli	r2,r2,4
 8003358:	1007883a 	mov	r3,r2
 800335c:	e0bffd03 	ldbu	r2,-12(fp)
 8003360:	1884b03a 	or	r2,r3,r2
 8003364:	1007883a 	mov	r3,r2
 8003368:	8105883a 	add	r2,r16,r4
 800336c:	10c00005 	stb	r3,0(r2)
		vga_ctrl->VRAM[(y*COLUMNS + x + i) * 2 + 1] = str[i];
 8003370:	d4200417 	ldw	r16,-32752(gp)
 8003374:	01401404 	movi	r5,80
 8003378:	e13ffc17 	ldw	r4,-16(fp)
 800337c:	80059ac0 	call	80059ac <__mulsi3>
 8003380:	1007883a 	mov	r3,r2
 8003384:	e0bffb17 	ldw	r2,-20(fp)
 8003388:	1887883a 	add	r3,r3,r2
 800338c:	e0bff917 	ldw	r2,-28(fp)
 8003390:	1885883a 	add	r2,r3,r2
 8003394:	1085883a 	add	r2,r2,r2
 8003398:	10800044 	addi	r2,r2,1
 800339c:	e0fff917 	ldw	r3,-28(fp)
 80033a0:	e13ffa17 	ldw	r4,-24(fp)
 80033a4:	20c7883a 	add	r3,r4,r3
 80033a8:	18c00003 	ldbu	r3,0(r3)
 80033ac:	8085883a 	add	r2,r16,r2
 80033b0:	10c00005 	stb	r3,0(r2)
		i++;
 80033b4:	e0bff917 	ldw	r2,-28(fp)
 80033b8:	10800044 	addi	r2,r2,1
 80033bc:	e0bff915 	stw	r2,-28(fp)
}

void textVGADrawColorText(char* str, int x, int y, alt_u8 background, alt_u8 foreground)
{
	int i = 0;
	while (str[i]!=0)
 80033c0:	e0bff917 	ldw	r2,-28(fp)
 80033c4:	e0fffa17 	ldw	r3,-24(fp)
 80033c8:	1885883a 	add	r2,r3,r2
 80033cc:	10800003 	ldbu	r2,0(r2)
 80033d0:	10803fcc 	andi	r2,r2,255
 80033d4:	1080201c 	xori	r2,r2,128
 80033d8:	10bfe004 	addi	r2,r2,-128
 80033dc:	103fd11e 	bne	r2,zero,8003324 <__alt_data_end+0xfc003324>
	{
		vga_ctrl->VRAM[(y*COLUMNS + x + i) * 2] = foreground << 4 | background;
		vga_ctrl->VRAM[(y*COLUMNS + x + i) * 2 + 1] = str[i];
		i++;
	}
}
 80033e0:	0001883a 	nop
 80033e4:	e6ffff04 	addi	sp,fp,-4
 80033e8:	dfc00217 	ldw	ra,8(sp)
 80033ec:	df000117 	ldw	fp,4(sp)
 80033f0:	dc000017 	ldw	r16,0(sp)
 80033f4:	dec00304 	addi	sp,sp,12
 80033f8:	f800283a 	ret

080033fc <setColorPalette>:
 * @param red : the red value
 * @param green : the green value
 * @param blue 	: the blue value
 */
void setColorPalette (alt_u8 color, alt_u8 red, alt_u8 green, alt_u8 blue)
{
 80033fc:	defffa04 	addi	sp,sp,-24
 8003400:	df000515 	stw	fp,20(sp)
 8003404:	df000504 	addi	fp,sp,20
 8003408:	2011883a 	mov	r8,r4
 800340c:	2809883a 	mov	r4,r5
 8003410:	3007883a 	mov	r3,r6
 8003414:	3805883a 	mov	r2,r7
 8003418:	e23ffc05 	stb	r8,-16(fp)
 800341c:	e13ffd05 	stb	r4,-12(fp)
 8003420:	e0fffe05 	stb	r3,-8(fp)
 8003424:	e0bfff05 	stb	r2,-4(fp)
	//fill in this function to set the color palette starting at offset 0x0000 2000 (from base)
	 //0x0000 2000 - 0x0000 201F Palette- 8 words of 2 colors each, for 16-color palette
	 // For example in word address 0x800, that is 0x2000 to 0x2001 in byte address, we have following color palette
	 // now for each byte the R G B are at lowest 12 bits
	alt_u32 val = ((alt_u32)red << 8) | (green << 4) | blue;
 8003428:	e0bffd03 	ldbu	r2,-12(fp)
 800342c:	1004923a 	slli	r2,r2,8
 8003430:	e0fffe03 	ldbu	r3,-8(fp)
 8003434:	1806913a 	slli	r3,r3,4
 8003438:	10c6b03a 	or	r3,r2,r3
 800343c:	e0bfff03 	ldbu	r2,-4(fp)
 8003440:	1884b03a 	or	r2,r3,r2
 8003444:	e0bffb15 	stw	r2,-20(fp)
	if (color % 2 == 0) {
 8003448:	e0bffc03 	ldbu	r2,-16(fp)
 800344c:	1080004c 	andi	r2,r2,1
 8003450:	10803fcc 	andi	r2,r2,255
 8003454:	10000b1e 	bne	r2,zero,8003484 <setColorPalette+0x88>
		vga_ctrl->PALETTE[color >> 1] = val;
 8003458:	d0e00417 	ldw	r3,-32752(gp)
 800345c:	e0bffc03 	ldbu	r2,-16(fp)
 8003460:	1004d07a 	srli	r2,r2,1
 8003464:	10803fcc 	andi	r2,r2,255
 8003468:	10820004 	addi	r2,r2,2048
 800346c:	1085883a 	add	r2,r2,r2
 8003470:	1085883a 	add	r2,r2,r2
 8003474:	1885883a 	add	r2,r3,r2
 8003478:	e0fffb17 	ldw	r3,-20(fp)
 800347c:	10c00015 	stw	r3,0(r2)
	} else {
		vga_ctrl->PALETTE[color >> 1] |= val << 16;
	}
}
 8003480:	00001506 	br	80034d8 <setColorPalette+0xdc>
	 // now for each byte the R G B are at lowest 12 bits
	alt_u32 val = ((alt_u32)red << 8) | (green << 4) | blue;
	if (color % 2 == 0) {
		vga_ctrl->PALETTE[color >> 1] = val;
	} else {
		vga_ctrl->PALETTE[color >> 1] |= val << 16;
 8003484:	d1200417 	ldw	r4,-32752(gp)
 8003488:	e0bffc03 	ldbu	r2,-16(fp)
 800348c:	1004d07a 	srli	r2,r2,1
 8003490:	11403fcc 	andi	r5,r2,255
 8003494:	d0e00417 	ldw	r3,-32752(gp)
 8003498:	e0bffc03 	ldbu	r2,-16(fp)
 800349c:	1004d07a 	srli	r2,r2,1
 80034a0:	10803fcc 	andi	r2,r2,255
 80034a4:	10820004 	addi	r2,r2,2048
 80034a8:	1085883a 	add	r2,r2,r2
 80034ac:	1085883a 	add	r2,r2,r2
 80034b0:	1885883a 	add	r2,r3,r2
 80034b4:	10c00017 	ldw	r3,0(r2)
 80034b8:	e0bffb17 	ldw	r2,-20(fp)
 80034bc:	1004943a 	slli	r2,r2,16
 80034c0:	1886b03a 	or	r3,r3,r2
 80034c4:	28820004 	addi	r2,r5,2048
 80034c8:	1085883a 	add	r2,r2,r2
 80034cc:	1085883a 	add	r2,r2,r2
 80034d0:	2085883a 	add	r2,r4,r2
 80034d4:	10c00015 	stw	r3,0(r2)
	}
}
 80034d8:	0001883a 	nop
 80034dc:	e037883a 	mov	sp,fp
 80034e0:	df000017 	ldw	fp,0(sp)
 80034e4:	dec00104 	addi	sp,sp,4
 80034e8:	f800283a 	ret

080034ec <ramsetctl>:

// keycode
// low 2 bytes reserved
void ramsetctl(long code)
{
 80034ec:	defffe04 	addi	sp,sp,-8
 80034f0:	df000115 	stw	fp,4(sp)
 80034f4:	df000104 	addi	fp,sp,4
 80034f8:	e13fff15 	stw	r4,-4(fp)
	vga_ctrl->CTRL = code;
 80034fc:	d0a00417 	ldw	r2,-32752(gp)
 8003500:	e0ffff17 	ldw	r3,-4(fp)
 8003504:	10c80815 	stw	r3,8224(r2)
}
 8003508:	0001883a 	nop
 800350c:	e037883a 	mov	sp,fp
 8003510:	df000017 	ldw	fp,0(sp)
 8003514:	dec00104 	addi	sp,sp,4
 8003518:	f800283a 	ret

0800351c <mem_test>:

void mem_test() {
 800351c:	defffc04 	addi	sp,sp,-16
 8003520:	dfc00315 	stw	ra,12(sp)
 8003524:	df000215 	stw	fp,8(sp)
 8003528:	df000204 	addi	fp,sp,8
	vga_ctrl->VRAM[0x123] = 0x45;
 800352c:	d0a00417 	ldw	r2,-32752(gp)
 8003530:	00c01144 	movi	r3,69
 8003534:	10c048c5 	stb	r3,291(r2)
	vga_ctrl->VRAM[0x321] = 0x45;
 8003538:	d0a00417 	ldw	r2,-32752(gp)
 800353c:	00c01144 	movi	r3,69
 8003540:	10c0c845 	stb	r3,801(r2)
	alt_32 sum = 0;
 8003544:	e03ffe15 	stw	zero,-8(fp)
	for(int i = 0; i < 0x333; i++) {
 8003548:	e03fff15 	stw	zero,-4(fp)
 800354c:	00000b06 	br	800357c <mem_test+0x60>
		sum += vga_ctrl->VRAM[i];
 8003550:	d0e00417 	ldw	r3,-32752(gp)
 8003554:	e0bfff17 	ldw	r2,-4(fp)
 8003558:	1885883a 	add	r2,r3,r2
 800355c:	10800003 	ldbu	r2,0(r2)
 8003560:	10803fcc 	andi	r2,r2,255
 8003564:	e0fffe17 	ldw	r3,-8(fp)
 8003568:	1885883a 	add	r2,r3,r2
 800356c:	e0bffe15 	stw	r2,-8(fp)

void mem_test() {
	vga_ctrl->VRAM[0x123] = 0x45;
	vga_ctrl->VRAM[0x321] = 0x45;
	alt_32 sum = 0;
	for(int i = 0; i < 0x333; i++) {
 8003570:	e0bfff17 	ldw	r2,-4(fp)
 8003574:	10800044 	addi	r2,r2,1
 8003578:	e0bfff15 	stw	r2,-4(fp)
 800357c:	e0bfff17 	ldw	r2,-4(fp)
 8003580:	1080ccd0 	cmplti	r2,r2,819
 8003584:	103ff21e 	bne	r2,zero,8003550 <__alt_data_end+0xfc003550>
		sum += vga_ctrl->VRAM[i];
	}
	if(sum != 0x45 * 2) {
 8003588:	e0bffe17 	ldw	r2,-8(fp)
 800358c:	108022a0 	cmpeqi	r2,r2,138
 8003590:	1000041e 	bne	r2,zero,80035a4 <mem_test+0x88>
		printf("Memory test failed!\n");
 8003594:	010200b4 	movhi	r4,2050
 8003598:	212c4904 	addi	r4,r4,-20188
 800359c:	8005c680 	call	8005c68 <puts>
	} else {
		printf("mem test passed\n");
	}
}
 80035a0:	00000306 	br	80035b0 <mem_test+0x94>
		sum += vga_ctrl->VRAM[i];
	}
	if(sum != 0x45 * 2) {
		printf("Memory test failed!\n");
	} else {
		printf("mem test passed\n");
 80035a4:	010200b4 	movhi	r4,2050
 80035a8:	212c4e04 	addi	r4,r4,-20168
 80035ac:	8005c680 	call	8005c68 <puts>
	}
}
 80035b0:	0001883a 	nop
 80035b4:	e037883a 	mov	sp,fp
 80035b8:	dfc00117 	ldw	ra,4(sp)
 80035bc:	df000017 	ldw	fp,0(sp)
 80035c0:	dec00204 	addi	sp,sp,8
 80035c4:	f800283a 	ret

080035c8 <text_VGA_init>:

/**
 * @brief Initialize the VGA controller, clear the screen, and configure the palette
 * 
 */
void text_VGA_init(void) {
 80035c8:	defff904 	addi	sp,sp,-28
 80035cc:	dfc00615 	stw	ra,24(sp)
 80035d0:	df000515 	stw	fp,20(sp)
 80035d4:	dcc00415 	stw	r19,16(sp)
 80035d8:	dc800315 	stw	r18,12(sp)
 80035dc:	dc400215 	stw	r17,8(sp)
 80035e0:	dc000115 	stw	r16,4(sp)
 80035e4:	df000504 	addi	fp,sp,20
	textVGAColorClr();
 80035e8:	800329c0 	call	800329c <textVGAColorClr>
	//initialize palette
	for (int i = 0; i < 16; i++)
 80035ec:	e03ffb15 	stw	zero,-20(fp)
 80035f0:	00002806 	br	8003694 <text_VGA_init+0xcc>
		setColorPalette (i, colors[i].red, colors[i].green, colors[i].blue);
 80035f4:	e0bffb17 	ldw	r2,-20(fp)
 80035f8:	14403fcc 	andi	r17,r2,255
 80035fc:	040200b4 	movhi	r16,2050
 8003600:	842e2d04 	addi	r16,r16,-18252
 8003604:	e0bffb17 	ldw	r2,-20(fp)
 8003608:	014005c4 	movi	r5,23
 800360c:	1009883a 	mov	r4,r2
 8003610:	80059ac0 	call	80059ac <__mulsi3>
 8003614:	8085883a 	add	r2,r16,r2
 8003618:	10800504 	addi	r2,r2,20
 800361c:	10800003 	ldbu	r2,0(r2)
 8003620:	14803fcc 	andi	r18,r2,255
 8003624:	040200b4 	movhi	r16,2050
 8003628:	842e2d04 	addi	r16,r16,-18252
 800362c:	e0bffb17 	ldw	r2,-20(fp)
 8003630:	014005c4 	movi	r5,23
 8003634:	1009883a 	mov	r4,r2
 8003638:	80059ac0 	call	80059ac <__mulsi3>
 800363c:	8085883a 	add	r2,r16,r2
 8003640:	10800544 	addi	r2,r2,21
 8003644:	10800003 	ldbu	r2,0(r2)
 8003648:	14c03fcc 	andi	r19,r2,255
 800364c:	040200b4 	movhi	r16,2050
 8003650:	842e2d04 	addi	r16,r16,-18252
 8003654:	e0bffb17 	ldw	r2,-20(fp)
 8003658:	014005c4 	movi	r5,23
 800365c:	1009883a 	mov	r4,r2
 8003660:	80059ac0 	call	80059ac <__mulsi3>
 8003664:	8085883a 	add	r2,r16,r2
 8003668:	10800584 	addi	r2,r2,22
 800366c:	10800003 	ldbu	r2,0(r2)
 8003670:	10803fcc 	andi	r2,r2,255
 8003674:	100f883a 	mov	r7,r2
 8003678:	980d883a 	mov	r6,r19
 800367c:	900b883a 	mov	r5,r18
 8003680:	8809883a 	mov	r4,r17
 8003684:	80033fc0 	call	80033fc <setColorPalette>
 * 
 */
void text_VGA_init(void) {
	textVGAColorClr();
	//initialize palette
	for (int i = 0; i < 16; i++)
 8003688:	e0bffb17 	ldw	r2,-20(fp)
 800368c:	10800044 	addi	r2,r2,1
 8003690:	e0bffb15 	stw	r2,-20(fp)
 8003694:	e0bffb17 	ldw	r2,-20(fp)
 8003698:	10800410 	cmplti	r2,r2,16
 800369c:	103fd51e 	bne	r2,zero,80035f4 <__alt_data_end+0xfc0035f4>
		setColorPalette (i, colors[i].red, colors[i].green, colors[i].blue);
}
 80036a0:	0001883a 	nop
 80036a4:	e6fffc04 	addi	sp,fp,-16
 80036a8:	dfc00517 	ldw	ra,20(sp)
 80036ac:	df000417 	ldw	fp,16(sp)
 80036b0:	dcc00317 	ldw	r19,12(sp)
 80036b4:	dc800217 	ldw	r18,8(sp)
 80036b8:	dc400117 	ldw	r17,4(sp)
 80036bc:	dc000017 	ldw	r16,0(sp)
 80036c0:	dec00604 	addi	sp,sp,24
 80036c4:	f800283a 	ret

080036c8 <textVGAColorScreenSaver>:

void textVGAColorScreenSaver()
{
 80036c8:	deffe404 	addi	sp,sp,-112
 80036cc:	dfc01b15 	stw	ra,108(sp)
 80036d0:	df001a15 	stw	fp,104(sp)
 80036d4:	dc001915 	stw	r16,100(sp)
 80036d8:	df001a04 	addi	fp,sp,104
	//This is the function you call for your week 2 demo
	char color_string[80];
    int fg, bg, x, y;
    text_VGA_init();
 80036dc:	80035c80 	call	80035c8 <text_VGA_init>
	while (1)
	{
		fg = rand() % 16;
 80036e0:	8005c940 	call	8005c94 <rand>
 80036e4:	1007883a 	mov	r3,r2
 80036e8:	00a00034 	movhi	r2,32768
 80036ec:	108003c4 	addi	r2,r2,15
 80036f0:	1884703a 	and	r2,r3,r2
 80036f4:	1000040e 	bge	r2,zero,8003708 <textVGAColorScreenSaver+0x40>
 80036f8:	10bfffc4 	addi	r2,r2,-1
 80036fc:	00fffc04 	movi	r3,-16
 8003700:	10c4b03a 	or	r2,r2,r3
 8003704:	10800044 	addi	r2,r2,1
 8003708:	e0bfe715 	stw	r2,-100(fp)
		bg = rand() % 16;
 800370c:	8005c940 	call	8005c94 <rand>
 8003710:	1007883a 	mov	r3,r2
 8003714:	00a00034 	movhi	r2,32768
 8003718:	108003c4 	addi	r2,r2,15
 800371c:	1884703a 	and	r2,r3,r2
 8003720:	1000040e 	bge	r2,zero,8003734 <textVGAColorScreenSaver+0x6c>
 8003724:	10bfffc4 	addi	r2,r2,-1
 8003728:	00fffc04 	movi	r3,-16
 800372c:	10c4b03a 	or	r2,r2,r3
 8003730:	10800044 	addi	r2,r2,1
 8003734:	e0bfe815 	stw	r2,-96(fp)
		while (fg == bg)
 8003738:	00001606 	br	8003794 <textVGAColorScreenSaver+0xcc>
		{
			fg = rand() % 16;
 800373c:	8005c940 	call	8005c94 <rand>
 8003740:	1007883a 	mov	r3,r2
 8003744:	00a00034 	movhi	r2,32768
 8003748:	108003c4 	addi	r2,r2,15
 800374c:	1884703a 	and	r2,r3,r2
 8003750:	1000040e 	bge	r2,zero,8003764 <textVGAColorScreenSaver+0x9c>
 8003754:	10bfffc4 	addi	r2,r2,-1
 8003758:	00fffc04 	movi	r3,-16
 800375c:	10c4b03a 	or	r2,r2,r3
 8003760:	10800044 	addi	r2,r2,1
 8003764:	e0bfe715 	stw	r2,-100(fp)
			bg = rand() % 16;
 8003768:	8005c940 	call	8005c94 <rand>
 800376c:	1007883a 	mov	r3,r2
 8003770:	00a00034 	movhi	r2,32768
 8003774:	108003c4 	addi	r2,r2,15
 8003778:	1884703a 	and	r2,r3,r2
 800377c:	1000040e 	bge	r2,zero,8003790 <textVGAColorScreenSaver+0xc8>
 8003780:	10bfffc4 	addi	r2,r2,-1
 8003784:	00fffc04 	movi	r3,-16
 8003788:	10c4b03a 	or	r2,r2,r3
 800378c:	10800044 	addi	r2,r2,1
 8003790:	e0bfe815 	stw	r2,-96(fp)
    text_VGA_init();
	while (1)
	{
		fg = rand() % 16;
		bg = rand() % 16;
		while (fg == bg)
 8003794:	e0ffe717 	ldw	r3,-100(fp)
 8003798:	e0bfe817 	ldw	r2,-96(fp)
 800379c:	18bfe726 	beq	r3,r2,800373c <__alt_data_end+0xfc00373c>
		{
			fg = rand() % 16;
			bg = rand() % 16;
		}
		sprintf(color_string, "Drawing %s text with %s background", colors[fg].name, colors[bg].name);
 80037a0:	014005c4 	movi	r5,23
 80037a4:	e13fe717 	ldw	r4,-100(fp)
 80037a8:	80059ac0 	call	80059ac <__mulsi3>
 80037ac:	1007883a 	mov	r3,r2
 80037b0:	008200b4 	movhi	r2,2050
 80037b4:	10ae2d04 	addi	r2,r2,-18252
 80037b8:	18a1883a 	add	r16,r3,r2
 80037bc:	014005c4 	movi	r5,23
 80037c0:	e13fe817 	ldw	r4,-96(fp)
 80037c4:	80059ac0 	call	80059ac <__mulsi3>
 80037c8:	1007883a 	mov	r3,r2
 80037cc:	008200b4 	movhi	r2,2050
 80037d0:	10ae2d04 	addi	r2,r2,-18252
 80037d4:	1887883a 	add	r3,r3,r2
 80037d8:	e0bfeb04 	addi	r2,fp,-84
 80037dc:	180f883a 	mov	r7,r3
 80037e0:	800d883a 	mov	r6,r16
 80037e4:	014200b4 	movhi	r5,2050
 80037e8:	296c5204 	addi	r5,r5,-20152
 80037ec:	1009883a 	mov	r4,r2
 80037f0:	8005d500 	call	8005d50 <sprintf>
		x = rand() % (80-strlen(color_string));
 80037f4:	8005c940 	call	8005c94 <rand>
 80037f8:	1021883a 	mov	r16,r2
 80037fc:	e0bfeb04 	addi	r2,fp,-84
 8003800:	1009883a 	mov	r4,r2
 8003804:	8005dbc0 	call	8005dbc <strlen>
 8003808:	1007883a 	mov	r3,r2
 800380c:	00801404 	movi	r2,80
 8003810:	10c5c83a 	sub	r2,r2,r3
 8003814:	100b883a 	mov	r5,r2
 8003818:	8009883a 	mov	r4,r16
 800381c:	80059540 	call	8005954 <__umodsi3>
 8003820:	e0bfe915 	stw	r2,-92(fp)
		y = rand() % 30;
 8003824:	8005c940 	call	8005c94 <rand>
 8003828:	01400784 	movi	r5,30
 800382c:	1009883a 	mov	r4,r2
 8003830:	800587c0 	call	800587c <__modsi3>
 8003834:	e0bfea15 	stw	r2,-88(fp)
		textVGADrawColorText (color_string, x, y, bg, fg);
 8003838:	e0bfe817 	ldw	r2,-96(fp)
 800383c:	11003fcc 	andi	r4,r2,255
 8003840:	e0bfe717 	ldw	r2,-100(fp)
 8003844:	10803fcc 	andi	r2,r2,255
 8003848:	e0ffeb04 	addi	r3,fp,-84
 800384c:	d8800015 	stw	r2,0(sp)
 8003850:	200f883a 	mov	r7,r4
 8003854:	e1bfea17 	ldw	r6,-88(fp)
 8003858:	e17fe917 	ldw	r5,-92(fp)
 800385c:	1809883a 	mov	r4,r3
 8003860:	80032ec0 	call	80032ec <textVGADrawColorText>
		usleep (100000);
 8003864:	010000b4 	movhi	r4,2
 8003868:	2121a804 	addi	r4,r4,-31072
 800386c:	8016f9c0 	call	8016f9c <usleep>
	}
 8003870:	003f9b06 	br	80036e0 <__alt_data_end+0xfc0036e0>

08003874 <HIDMProbe>:
/* HID Mouse probe. Called from USB state machine.                          */
/* assumes configuration length is less than 256 bytes                      */
/* looks for Class:03, Subclass: 01, Protocol: 02 in interface descriptor   */
/* sets mouse in boot protocol                                              */
/* assumes single configuration and interface configuration 0               */
BOOL HIDMProbe(BYTE addr, DWORD flags) {
 8003874:	defff204 	addi	sp,sp,-56
 8003878:	dfc00d15 	stw	ra,52(sp)
 800387c:	df000c15 	stw	fp,48(sp)
 8003880:	df000c04 	addi	fp,sp,48
 8003884:	2005883a 	mov	r2,r4
 8003888:	e17fff15 	stw	r5,-4(fp)
 800388c:	e0bffe05 	stb	r2,-8(fp)
	BYTE tmpbyte;
	BYTE rcode;
	BYTE confvalue;
	WORD total_length;
	USB_DESCR* data_ptr = (USB_DESCR *) &bigbuf;
 8003890:	008200b4 	movhi	r2,2050
 8003894:	10bd9d04 	addi	r2,r2,-2444
 8003898:	e0bffa15 	stw	r2,-24(fp)
	BYTE* byte_ptr = bigbuf;
 800389c:	008200b4 	movhi	r2,2050
 80038a0:	10bd9d04 	addi	r2,r2,-2444
 80038a4:	e0bffb15 	stw	r2,-20(fp)
	rcode = XferGetConfDescr(addr, 0, CONF_DESCR_LEN, 0, bigbuf); //get configuration descriptor
 80038a8:	e0fffe03 	ldbu	r3,-8(fp)
 80038ac:	008200b4 	movhi	r2,2050
 80038b0:	10bd9d04 	addi	r2,r2,-2444
 80038b4:	d8800415 	stw	r2,16(sp)
 80038b8:	00800244 	movi	r2,9
 80038bc:	d8800315 	stw	r2,12(sp)
 80038c0:	d8000215 	stw	zero,8(sp)
 80038c4:	00800084 	movi	r2,2
 80038c8:	d8800115 	stw	r2,4(sp)
 80038cc:	d8000015 	stw	zero,0(sp)
 80038d0:	01c00184 	movi	r7,6
 80038d4:	01802004 	movi	r6,128
 80038d8:	000b883a 	mov	r5,zero
 80038dc:	1809883a 	mov	r4,r3
 80038e0:	80049600 	call	8004960 <XferCtrlReq>
 80038e4:	e0bffc05 	stb	r2,-16(fp)
	if (rcode) {   //error handling
 80038e8:	e0bffc03 	ldbu	r2,-16(fp)
 80038ec:	10000226 	beq	r2,zero,80038f8 <HIDMProbe+0x84>
		//printf("unable to get configuration descriptor");
		return (FALSE);
 80038f0:	0005883a 	mov	r2,zero
 80038f4:	0000dc06 	br	8003c68 <HIDMProbe+0x3f4>
	}
	if (data_ptr->descr.config.wTotalLength > 256) {
 80038f8:	e0bffa17 	ldw	r2,-24(fp)
 80038fc:	1080008b 	ldhu	r2,2(r2)
 8003900:	10bfffcc 	andi	r2,r2,65535
 8003904:	10804070 	cmpltui	r2,r2,257
 8003908:	1000031e 	bne	r2,zero,8003918 <HIDMProbe+0xa4>
		total_length = 256;
 800390c:	00804004 	movi	r2,256
 8003910:	e0bff90d 	sth	r2,-28(fp)
 8003914:	00000306 	br	8003924 <HIDMProbe+0xb0>
	} else {
		total_length = data_ptr->descr.config.wTotalLength;
 8003918:	e0bffa17 	ldw	r2,-24(fp)
 800391c:	1080008b 	ldhu	r2,2(r2)
 8003920:	e0bff90d 	sth	r2,-28(fp)
	}
	rcode = XferGetConfDescr(addr, 0, total_length, 0, bigbuf); //get the whole configuration
 8003924:	e13ffe03 	ldbu	r4,-8(fp)
 8003928:	e0fff90b 	ldhu	r3,-28(fp)
 800392c:	008200b4 	movhi	r2,2050
 8003930:	10bd9d04 	addi	r2,r2,-2444
 8003934:	d8800415 	stw	r2,16(sp)
 8003938:	d8c00315 	stw	r3,12(sp)
 800393c:	d8000215 	stw	zero,8(sp)
 8003940:	00800084 	movi	r2,2
 8003944:	d8800115 	stw	r2,4(sp)
 8003948:	d8000015 	stw	zero,0(sp)
 800394c:	01c00184 	movi	r7,6
 8003950:	01802004 	movi	r6,128
 8003954:	000b883a 	mov	r5,zero
 8003958:	80049600 	call	8004960 <XferCtrlReq>
 800395c:	e0bffc05 	stb	r2,-16(fp)
	if (rcode) {   //error handling
 8003960:	e0bffc03 	ldbu	r2,-16(fp)
 8003964:	10000226 	beq	r2,zero,8003970 <HIDMProbe+0xfc>
		//printf("unable to get configuration");
		return (FALSE);
 8003968:	0005883a 	mov	r2,zero
 800396c:	0000be06 	br	8003c68 <HIDMProbe+0x3f4>
	}
	confvalue = data_ptr->descr.config.bConfigurationValue;
 8003970:	e0bffa17 	ldw	r2,-24(fp)
 8003974:	10800143 	ldbu	r2,5(r2)
 8003978:	e0bffc45 	stb	r2,-15(fp)
	//printf("checking configuration value (length: %d): ",
	//		data_ptr->descr.config.wTotalLength);
	//for (int i = 0; i < data_ptr->descr.config.wTotalLength; i++) {
		//printf("%x ", (unsigned char) (bigbuf[i] & 0xff));
	//}
	while (byte_ptr < bigbuf + total_length) {
 800397c:	0000b306 	br	8003c4c <HIDMProbe+0x3d8>
		if (data_ptr->descr.config.bDescriptorType != USB_DESCRIPTOR_INTERFACE) {
 8003980:	e0bffa17 	ldw	r2,-24(fp)
 8003984:	10800043 	ldbu	r2,1(r2)
 8003988:	10803fcc 	andi	r2,r2,255
 800398c:	10800120 	cmpeqi	r2,r2,4
 8003990:	1000091e 	bne	r2,zero,80039b8 <HIDMProbe+0x144>
			byte_ptr = byte_ptr + data_ptr->descr.config.bLength;
 8003994:	e0bffa17 	ldw	r2,-24(fp)
 8003998:	10800003 	ldbu	r2,0(r2)
 800399c:	10803fcc 	andi	r2,r2,255
 80039a0:	e0fffb17 	ldw	r3,-20(fp)
 80039a4:	1885883a 	add	r2,r3,r2
 80039a8:	e0bffb15 	stw	r2,-20(fp)
			data_ptr = (USB_DESCR*) byte_ptr;
 80039ac:	e0bffb17 	ldw	r2,-20(fp)
 80039b0:	e0bffa15 	stw	r2,-24(fp)
 80039b4:	0000a506 	br	8003c4c <HIDMProbe+0x3d8>
		} // if( data_ptr->descr.config.bDescriptorType != USB_DESCRIPTOR_INTERFACE
		else {
			//printf("starting interface parsing at byte location %d\n",
			//		data_ptr->descr.config.bLength);
			BYTE class = data_ptr->descr.interface.bInterfaceClass;
 80039b8:	e0bffa17 	ldw	r2,-24(fp)
 80039bc:	10800143 	ldbu	r2,5(r2)
 80039c0:	e0bffc85 	stb	r2,-14(fp)
			BYTE subclass = data_ptr->descr.interface.bInterfaceSubClass;
 80039c4:	e0bffa17 	ldw	r2,-24(fp)
 80039c8:	10800183 	ldbu	r2,6(r2)
 80039cc:	e0bffcc5 	stb	r2,-13(fp)
			BYTE protocol = data_ptr->descr.interface.bInterfaceProtocol;
 80039d0:	e0bffa17 	ldw	r2,-24(fp)
 80039d4:	108001c3 	ldbu	r2,7(r2)
 80039d8:	e0bffd05 	stb	r2,-12(fp)
			//printf("class %x, subclass %x, protocol %x,\n", class, subclass,
			//		protocol);
			//interface descriptor
			if (class == HID_INTF && subclass == BOOT_INTF_SUBCLASS
 80039dc:	e0bffc83 	ldbu	r2,-14(fp)
 80039e0:	108000d8 	cmpnei	r2,r2,3
 80039e4:	1000971e 	bne	r2,zero,8003c44 <HIDMProbe+0x3d0>
 80039e8:	e0bffcc3 	ldbu	r2,-13(fp)
 80039ec:	10800058 	cmpnei	r2,r2,1
 80039f0:	1000941e 	bne	r2,zero,8003c44 <HIDMProbe+0x3d0>
					&& protocol == HID_PROTOCOL_MOUSE) {
 80039f4:	e0bffd03 	ldbu	r2,-12(fp)
 80039f8:	10800098 	cmpnei	r2,r2,2
 80039fc:	1000911e 	bne	r2,zero,8003c44 <HIDMProbe+0x3d0>
				//detected a mouse
				devtable[addr].devclass = HID_M;                  //device class
 8003a00:	e0fffe03 	ldbu	r3,-8(fp)
 8003a04:	008200b4 	movhi	r2,2050
 8003a08:	10bddd04 	addi	r2,r2,-2188
 8003a0c:	180690fa 	slli	r3,r3,3
 8003a10:	10c5883a 	add	r2,r2,r3
 8003a14:	10800104 	addi	r2,r2,4
 8003a18:	00c00084 	movi	r3,2
 8003a1c:	10c00005 	stb	r3,0(r2)
				tmpbyte = devtable[addr].epinfo->MaxPktSize;
 8003a20:	e0fffe03 	ldbu	r3,-8(fp)
 8003a24:	008200b4 	movhi	r2,2050
 8003a28:	10bddd04 	addi	r2,r2,-2188
 8003a2c:	180690fa 	slli	r3,r3,3
 8003a30:	10c5883a 	add	r2,r2,r3
 8003a34:	10800017 	ldw	r2,0(r2)
 8003a38:	1080008b 	ldhu	r2,2(r2)
 8003a3c:	e0bffd45 	stb	r2,-11(fp)
				HID_init();                         //initialize data structures
 8003a40:	80040840 	call	8004084 <HID_init>
				devtable[addr].epinfo = hid_ep; //switch endpoint information structure
 8003a44:	e0fffe03 	ldbu	r3,-8(fp)
 8003a48:	008200b4 	movhi	r2,2050
 8003a4c:	10bddd04 	addi	r2,r2,-2188
 8003a50:	180690fa 	slli	r3,r3,3
 8003a54:	10c7883a 	add	r3,r2,r3
 8003a58:	008200b4 	movhi	r2,2050
 8003a5c:	10bd8904 	addi	r2,r2,-2524
 8003a60:	18800015 	stw	r2,0(r3)
				devtable[addr].epinfo[0].MaxPktSize = tmpbyte;
 8003a64:	e0fffe03 	ldbu	r3,-8(fp)
 8003a68:	008200b4 	movhi	r2,2050
 8003a6c:	10bddd04 	addi	r2,r2,-2188
 8003a70:	180690fa 	slli	r3,r3,3
 8003a74:	10c5883a 	add	r2,r2,r3
 8003a78:	10800017 	ldw	r2,0(r2)
 8003a7c:	e0fffd43 	ldbu	r3,-11(fp)
 8003a80:	10c0008d 	sth	r3,2(r2)
				hid_device.interface =
						data_ptr->descr.interface.bInterfaceNumber;
 8003a84:	e0bffa17 	ldw	r2,-24(fp)
 8003a88:	10800083 	ldbu	r2,2(r2)
				devtable[addr].devclass = HID_M;                  //device class
				tmpbyte = devtable[addr].epinfo->MaxPktSize;
				HID_init();                         //initialize data structures
				devtable[addr].epinfo = hid_ep; //switch endpoint information structure
				devtable[addr].epinfo[0].MaxPktSize = tmpbyte;
				hid_device.interface =
 8003a8c:	d0a82785 	stb	r2,-24418(gp)
						data_ptr->descr.interface.bInterfaceNumber;
				hid_device.addr = addr;
 8003a90:	e0bffe03 	ldbu	r2,-8(fp)
 8003a94:	d0a82745 	stb	r2,-24419(gp)
				byte_ptr = byte_ptr + data_ptr->descr.config.bLength;
 8003a98:	e0bffa17 	ldw	r2,-24(fp)
 8003a9c:	10800003 	ldbu	r2,0(r2)
 8003aa0:	10803fcc 	andi	r2,r2,255
 8003aa4:	e0fffb17 	ldw	r3,-20(fp)
 8003aa8:	1885883a 	add	r2,r3,r2
 8003aac:	e0bffb15 	stw	r2,-20(fp)
				data_ptr = (USB_DESCR*) byte_ptr;
 8003ab0:	e0bffb17 	ldw	r2,-20(fp)
 8003ab4:	e0bffa15 	stw	r2,-24(fp)
				while (byte_ptr < bigbuf + total_length) {
 8003ab8:	00005b06 	br	8003c28 <HIDMProbe+0x3b4>
					if (data_ptr->descr.config.bDescriptorType
 8003abc:	e0bffa17 	ldw	r2,-24(fp)
 8003ac0:	10800043 	ldbu	r2,1(r2)
 8003ac4:	10803fcc 	andi	r2,r2,255
 8003ac8:	10800160 	cmpeqi	r2,r2,5
 8003acc:	1000091e 	bne	r2,zero,8003af4 <HIDMProbe+0x280>
							!= USB_DESCRIPTOR_ENDPOINT) { //skip to endpoint descriptor
						byte_ptr = byte_ptr + data_ptr->descr.config.bLength;
 8003ad0:	e0bffa17 	ldw	r2,-24(fp)
 8003ad4:	10800003 	ldbu	r2,0(r2)
 8003ad8:	10803fcc 	andi	r2,r2,255
 8003adc:	e0fffb17 	ldw	r3,-20(fp)
 8003ae0:	1885883a 	add	r2,r3,r2
 8003ae4:	e0bffb15 	stw	r2,-20(fp)
						data_ptr = (USB_DESCR*) byte_ptr;
 8003ae8:	e0bffb17 	ldw	r2,-20(fp)
 8003aec:	e0bffa15 	stw	r2,-24(fp)
 8003af0:	00004d06 	br	8003c28 <HIDMProbe+0x3b4>
					} else {
						/* fill endpoint information structure */
						devtable[addr].epinfo[1].epAddr =
 8003af4:	e0fffe03 	ldbu	r3,-8(fp)
 8003af8:	008200b4 	movhi	r2,2050
 8003afc:	10bddd04 	addi	r2,r2,-2188
 8003b00:	180690fa 	slli	r3,r3,3
 8003b04:	10c5883a 	add	r2,r2,r3
 8003b08:	10800017 	ldw	r2,0(r2)
 8003b0c:	10800204 	addi	r2,r2,8
								data_ptr->descr.endpoint.bEndpointAddress;
 8003b10:	e0fffa17 	ldw	r3,-24(fp)
 8003b14:	18c00083 	ldbu	r3,2(r3)
							!= USB_DESCRIPTOR_ENDPOINT) { //skip to endpoint descriptor
						byte_ptr = byte_ptr + data_ptr->descr.config.bLength;
						data_ptr = (USB_DESCR*) byte_ptr;
					} else {
						/* fill endpoint information structure */
						devtable[addr].epinfo[1].epAddr =
 8003b18:	10c00005 	stb	r3,0(r2)
								data_ptr->descr.endpoint.bEndpointAddress;
						devtable[addr].epinfo[1].Attr =
 8003b1c:	e0fffe03 	ldbu	r3,-8(fp)
 8003b20:	008200b4 	movhi	r2,2050
 8003b24:	10bddd04 	addi	r2,r2,-2188
 8003b28:	180690fa 	slli	r3,r3,3
 8003b2c:	10c5883a 	add	r2,r2,r3
 8003b30:	10800017 	ldw	r2,0(r2)
 8003b34:	10800204 	addi	r2,r2,8
								data_ptr->descr.endpoint.bmAttributes;
 8003b38:	e0fffa17 	ldw	r3,-24(fp)
 8003b3c:	18c000c3 	ldbu	r3,3(r3)
						data_ptr = (USB_DESCR*) byte_ptr;
					} else {
						/* fill endpoint information structure */
						devtable[addr].epinfo[1].epAddr =
								data_ptr->descr.endpoint.bEndpointAddress;
						devtable[addr].epinfo[1].Attr =
 8003b40:	10c00045 	stb	r3,1(r2)
								data_ptr->descr.endpoint.bmAttributes;
						devtable[addr].epinfo[1].MaxPktSize =
 8003b44:	e0fffe03 	ldbu	r3,-8(fp)
 8003b48:	008200b4 	movhi	r2,2050
 8003b4c:	10bddd04 	addi	r2,r2,-2188
 8003b50:	180690fa 	slli	r3,r3,3
 8003b54:	10c5883a 	add	r2,r2,r3
 8003b58:	10800017 	ldw	r2,0(r2)
 8003b5c:	10800204 	addi	r2,r2,8
								data_ptr->descr.endpoint.wMaxPacketSize;
 8003b60:	e0fffa17 	ldw	r3,-24(fp)
 8003b64:	18c0010b 	ldhu	r3,4(r3)
						/* fill endpoint information structure */
						devtable[addr].epinfo[1].epAddr =
								data_ptr->descr.endpoint.bEndpointAddress;
						devtable[addr].epinfo[1].Attr =
								data_ptr->descr.endpoint.bmAttributes;
						devtable[addr].epinfo[1].MaxPktSize =
 8003b68:	10c0008d 	sth	r3,2(r2)
								data_ptr->descr.endpoint.wMaxPacketSize;
						devtable[addr].epinfo[1].Interval =
 8003b6c:	e0fffe03 	ldbu	r3,-8(fp)
 8003b70:	008200b4 	movhi	r2,2050
 8003b74:	10bddd04 	addi	r2,r2,-2188
 8003b78:	180690fa 	slli	r3,r3,3
 8003b7c:	10c5883a 	add	r2,r2,r3
 8003b80:	10800017 	ldw	r2,0(r2)
 8003b84:	10800204 	addi	r2,r2,8
								data_ptr->descr.endpoint.bInterval;
 8003b88:	e0fffa17 	ldw	r3,-24(fp)
 8003b8c:	18c00183 	ldbu	r3,6(r3)
								data_ptr->descr.endpoint.bEndpointAddress;
						devtable[addr].epinfo[1].Attr =
								data_ptr->descr.endpoint.bmAttributes;
						devtable[addr].epinfo[1].MaxPktSize =
								data_ptr->descr.endpoint.wMaxPacketSize;
						devtable[addr].epinfo[1].Interval =
 8003b90:	10c00105 	stb	r3,4(r2)
								data_ptr->descr.endpoint.bInterval;
						// devtable[ addr ].epinfo[ 1 ].rcvToggle = bmRCVTOG0;
						/* configure device */
						rcode = XferSetConf(addr, 0, confvalue); //set configuration
 8003b94:	e0fffe03 	ldbu	r3,-8(fp)
 8003b98:	e0bffc43 	ldbu	r2,-15(fp)
 8003b9c:	d8000415 	stw	zero,16(sp)
 8003ba0:	d8000315 	stw	zero,12(sp)
 8003ba4:	d8000215 	stw	zero,8(sp)
 8003ba8:	d8000115 	stw	zero,4(sp)
 8003bac:	d8800015 	stw	r2,0(sp)
 8003bb0:	01c00244 	movi	r7,9
 8003bb4:	000d883a 	mov	r6,zero
 8003bb8:	000b883a 	mov	r5,zero
 8003bbc:	1809883a 	mov	r4,r3
 8003bc0:	80049600 	call	8004960 <XferCtrlReq>
 8003bc4:	e0bffc05 	stb	r2,-16(fp)
						if (rcode) {   //error handling
 8003bc8:	e0bffc03 	ldbu	r2,-16(fp)
 8003bcc:	10000226 	beq	r2,zero,8003bd8 <HIDMProbe+0x364>
							return (FALSE);
 8003bd0:	0005883a 	mov	r2,zero
 8003bd4:	00002406 	br	8003c68 <HIDMProbe+0x3f4>
						}
						rcode = XferSetProto(addr, 0, hid_device.interface,
 8003bd8:	e0fffe03 	ldbu	r3,-8(fp)
 8003bdc:	d0a82783 	ldbu	r2,-24418(gp)
 8003be0:	10803fcc 	andi	r2,r2,255
 8003be4:	d8000415 	stw	zero,16(sp)
 8003be8:	d8000315 	stw	zero,12(sp)
 8003bec:	d8800215 	stw	r2,8(sp)
 8003bf0:	d8000115 	stw	zero,4(sp)
 8003bf4:	d8000015 	stw	zero,0(sp)
 8003bf8:	01c002c4 	movi	r7,11
 8003bfc:	01800844 	movi	r6,33
 8003c00:	000b883a 	mov	r5,zero
 8003c04:	1809883a 	mov	r4,r3
 8003c08:	80049600 	call	8004960 <XferCtrlReq>
 8003c0c:	e0bffc05 	stb	r2,-16(fp)
								BOOT_PROTOCOL);
						if (rcode) {   //error handling
 8003c10:	e0bffc03 	ldbu	r2,-16(fp)
 8003c14:	10000226 	beq	r2,zero,8003c20 <HIDMProbe+0x3ac>
							return (FALSE);
 8003c18:	0005883a 	mov	r2,zero
 8003c1c:	00001206 	br	8003c68 <HIDMProbe+0x3f4>
						} else {
							return (TRUE);
 8003c20:	00800044 	movi	r2,1
 8003c24:	00001006 	br	8003c68 <HIDMProbe+0x3f4>
				hid_device.interface =
						data_ptr->descr.interface.bInterfaceNumber;
				hid_device.addr = addr;
				byte_ptr = byte_ptr + data_ptr->descr.config.bLength;
				data_ptr = (USB_DESCR*) byte_ptr;
				while (byte_ptr < bigbuf + total_length) {
 8003c28:	e0fff90b 	ldhu	r3,-28(fp)
 8003c2c:	008200b4 	movhi	r2,2050
 8003c30:	10bd9d04 	addi	r2,r2,-2444
 8003c34:	1885883a 	add	r2,r3,r2
 8003c38:	e0fffb17 	ldw	r3,-20(fp)
 8003c3c:	18bf9f36 	bltu	r3,r2,8003abc <__alt_data_end+0xfc003abc>
			BYTE subclass = data_ptr->descr.interface.bInterfaceSubClass;
			BYTE protocol = data_ptr->descr.interface.bInterfaceProtocol;
			//printf("class %x, subclass %x, protocol %x,\n", class, subclass,
			//		protocol);
			//interface descriptor
			if (class == HID_INTF && subclass == BOOT_INTF_SUBCLASS
 8003c40:	00000206 	br	8003c4c <HIDMProbe+0x3d8>
						}
					}
				}   //while( byte_ptr....
			}   //if (Class matches
			else { //if class don't match; die on first interface. Not really correct
				return (FALSE);
 8003c44:	0005883a 	mov	r2,zero
 8003c48:	00000706 	br	8003c68 <HIDMProbe+0x3f4>
	//printf("checking configuration value (length: %d): ",
	//		data_ptr->descr.config.wTotalLength);
	//for (int i = 0; i < data_ptr->descr.config.wTotalLength; i++) {
		//printf("%x ", (unsigned char) (bigbuf[i] & 0xff));
	//}
	while (byte_ptr < bigbuf + total_length) {
 8003c4c:	e0fff90b 	ldhu	r3,-28(fp)
 8003c50:	008200b4 	movhi	r2,2050
 8003c54:	10bd9d04 	addi	r2,r2,-2444
 8003c58:	1885883a 	add	r2,r3,r2
 8003c5c:	e0fffb17 	ldw	r3,-20(fp)
 8003c60:	18bf4736 	bltu	r3,r2,8003980 <__alt_data_end+0xfc003980>
			else { //if class don't match; die on first interface. Not really correct
				return (FALSE);
			}
		} //else if( data_ptr->
	} // while( byte_ptr < &buf + total_length
	return (FALSE);
 8003c64:	0005883a 	mov	r2,zero
}
 8003c68:	e037883a 	mov	sp,fp
 8003c6c:	dfc00117 	ldw	ra,4(sp)
 8003c70:	df000017 	ldw	fp,0(sp)
 8003c74:	dec00204 	addi	sp,sp,8
 8003c78:	f800283a 	ret

08003c7c <HIDKProbe>:
/* HID Keyboard probe. Called from USB state machine.                           */
/* assumes configuration length is less than 256 bytes                          */
/* looks for Class:03, Subclass: 01, Protocol: 01 in interface descriptor       */
/* sets keyboard in boot protocol                                               */
/* assumes single configuration, single endpoint, and interface configuration 0 */
BOOL HIDKProbe(BYTE addr, DWORD flags) {
 8003c7c:	defff204 	addi	sp,sp,-56
 8003c80:	dfc00d15 	stw	ra,52(sp)
 8003c84:	df000c15 	stw	fp,48(sp)
 8003c88:	df000c04 	addi	fp,sp,48
 8003c8c:	2005883a 	mov	r2,r4
 8003c90:	e17fff15 	stw	r5,-4(fp)
 8003c94:	e0bffe05 	stb	r2,-8(fp)
	BYTE tmpbyte;
	BYTE rcode;
	BYTE confvalue;
	WORD total_length;
	USB_DESCR* data_ptr = (USB_DESCR *) &bigbuf;
 8003c98:	008200b4 	movhi	r2,2050
 8003c9c:	10bd9d04 	addi	r2,r2,-2444
 8003ca0:	e0bffa15 	stw	r2,-24(fp)
	BYTE* byte_ptr = bigbuf;
 8003ca4:	008200b4 	movhi	r2,2050
 8003ca8:	10bd9d04 	addi	r2,r2,-2444
 8003cac:	e0bffb15 	stw	r2,-20(fp)
	rcode = XferGetConfDescr(addr, 0, CONF_DESCR_LEN, 0, bigbuf); //get configuration descriptor
 8003cb0:	e0fffe03 	ldbu	r3,-8(fp)
 8003cb4:	008200b4 	movhi	r2,2050
 8003cb8:	10bd9d04 	addi	r2,r2,-2444
 8003cbc:	d8800415 	stw	r2,16(sp)
 8003cc0:	00800244 	movi	r2,9
 8003cc4:	d8800315 	stw	r2,12(sp)
 8003cc8:	d8000215 	stw	zero,8(sp)
 8003ccc:	00800084 	movi	r2,2
 8003cd0:	d8800115 	stw	r2,4(sp)
 8003cd4:	d8000015 	stw	zero,0(sp)
 8003cd8:	01c00184 	movi	r7,6
 8003cdc:	01802004 	movi	r6,128
 8003ce0:	000b883a 	mov	r5,zero
 8003ce4:	1809883a 	mov	r4,r3
 8003ce8:	80049600 	call	8004960 <XferCtrlReq>
 8003cec:	e0bffc05 	stb	r2,-16(fp)
	if (rcode) {   //error handling           
 8003cf0:	e0bffc03 	ldbu	r2,-16(fp)
 8003cf4:	10000226 	beq	r2,zero,8003d00 <HIDKProbe+0x84>
		return (FALSE);
 8003cf8:	0005883a 	mov	r2,zero
 8003cfc:	0000dc06 	br	8004070 <HIDKProbe+0x3f4>
	}
	if (data_ptr->descr.config.wTotalLength > 256) {
 8003d00:	e0bffa17 	ldw	r2,-24(fp)
 8003d04:	1080008b 	ldhu	r2,2(r2)
 8003d08:	10bfffcc 	andi	r2,r2,65535
 8003d0c:	10804070 	cmpltui	r2,r2,257
 8003d10:	1000031e 	bne	r2,zero,8003d20 <HIDKProbe+0xa4>
		total_length = 256;
 8003d14:	00804004 	movi	r2,256
 8003d18:	e0bff90d 	sth	r2,-28(fp)
 8003d1c:	00000306 	br	8003d2c <HIDKProbe+0xb0>
	} else {
		total_length = data_ptr->descr.config.wTotalLength;
 8003d20:	e0bffa17 	ldw	r2,-24(fp)
 8003d24:	1080008b 	ldhu	r2,2(r2)
 8003d28:	e0bff90d 	sth	r2,-28(fp)
	}
	rcode = XferGetConfDescr(addr, 0, total_length, 0, bigbuf); //get the whole configuration
 8003d2c:	e13ffe03 	ldbu	r4,-8(fp)
 8003d30:	e0fff90b 	ldhu	r3,-28(fp)
 8003d34:	008200b4 	movhi	r2,2050
 8003d38:	10bd9d04 	addi	r2,r2,-2444
 8003d3c:	d8800415 	stw	r2,16(sp)
 8003d40:	d8c00315 	stw	r3,12(sp)
 8003d44:	d8000215 	stw	zero,8(sp)
 8003d48:	00800084 	movi	r2,2
 8003d4c:	d8800115 	stw	r2,4(sp)
 8003d50:	d8000015 	stw	zero,0(sp)
 8003d54:	01c00184 	movi	r7,6
 8003d58:	01802004 	movi	r6,128
 8003d5c:	000b883a 	mov	r5,zero
 8003d60:	80049600 	call	8004960 <XferCtrlReq>
 8003d64:	e0bffc05 	stb	r2,-16(fp)
	if (rcode) {   //error handling
 8003d68:	e0bffc03 	ldbu	r2,-16(fp)
 8003d6c:	10000226 	beq	r2,zero,8003d78 <HIDKProbe+0xfc>
		return (FALSE);
 8003d70:	0005883a 	mov	r2,zero
 8003d74:	0000be06 	br	8004070 <HIDKProbe+0x3f4>
	}
	confvalue = data_ptr->descr.config.bConfigurationValue; //save configuration value to use later
 8003d78:	e0bffa17 	ldw	r2,-24(fp)
 8003d7c:	10800143 	ldbu	r2,5(r2)
 8003d80:	e0bffc45 	stb	r2,-15(fp)
	while (byte_ptr < bigbuf + total_length) {             //parse configuration
 8003d84:	0000b306 	br	8004054 <HIDKProbe+0x3d8>
		if (data_ptr->descr.config.bDescriptorType != USB_DESCRIPTOR_INTERFACE) { //skip to the next descriptor
 8003d88:	e0bffa17 	ldw	r2,-24(fp)
 8003d8c:	10800043 	ldbu	r2,1(r2)
 8003d90:	10803fcc 	andi	r2,r2,255
 8003d94:	10800120 	cmpeqi	r2,r2,4
 8003d98:	1000091e 	bne	r2,zero,8003dc0 <HIDKProbe+0x144>
			byte_ptr = byte_ptr + data_ptr->descr.config.bLength;
 8003d9c:	e0bffa17 	ldw	r2,-24(fp)
 8003da0:	10800003 	ldbu	r2,0(r2)
 8003da4:	10803fcc 	andi	r2,r2,255
 8003da8:	e0fffb17 	ldw	r3,-20(fp)
 8003dac:	1885883a 	add	r2,r3,r2
 8003db0:	e0bffb15 	stw	r2,-20(fp)
			data_ptr = (USB_DESCR*) byte_ptr;
 8003db4:	e0bffb17 	ldw	r2,-20(fp)
 8003db8:	e0bffa15 	stw	r2,-24(fp)
 8003dbc:	0000a506 	br	8004054 <HIDKProbe+0x3d8>
		} // if( data_ptr->descr.config.bDescriptorType != USB_DESCRIPTOR_INTERFACE
		else {
			//printf("starting interface parsing at byte location %d\n",
			//		data_ptr->descr.config.bLength);
			BYTE class = data_ptr->descr.interface.bInterfaceClass;
 8003dc0:	e0bffa17 	ldw	r2,-24(fp)
 8003dc4:	10800143 	ldbu	r2,5(r2)
 8003dc8:	e0bffc85 	stb	r2,-14(fp)
			BYTE subclass = data_ptr->descr.interface.bInterfaceSubClass;
 8003dcc:	e0bffa17 	ldw	r2,-24(fp)
 8003dd0:	10800183 	ldbu	r2,6(r2)
 8003dd4:	e0bffcc5 	stb	r2,-13(fp)
			BYTE protocol = data_ptr->descr.interface.bInterfaceProtocol;
 8003dd8:	e0bffa17 	ldw	r2,-24(fp)
 8003ddc:	108001c3 	ldbu	r2,7(r2)
 8003de0:	e0bffd05 	stb	r2,-12(fp)
			//printf("class %x, subclass %x, protocol %x,\n", class, subclass,
			//		protocol);
			//interface descriptor
			if (class == HID_INTF && subclass == BOOT_INTF_SUBCLASS
 8003de4:	e0bffc83 	ldbu	r2,-14(fp)
 8003de8:	108000d8 	cmpnei	r2,r2,3
 8003dec:	1000971e 	bne	r2,zero,800404c <HIDKProbe+0x3d0>
 8003df0:	e0bffcc3 	ldbu	r2,-13(fp)
 8003df4:	10800058 	cmpnei	r2,r2,1
 8003df8:	1000941e 	bne	r2,zero,800404c <HIDKProbe+0x3d0>
					&& protocol == HID_PROTOCOL_KEYBOARD) {
 8003dfc:	e0bffd03 	ldbu	r2,-12(fp)
 8003e00:	10800058 	cmpnei	r2,r2,1
 8003e04:	1000911e 	bne	r2,zero,800404c <HIDKProbe+0x3d0>
				//detected a keyboard
				devtable[addr].devclass = HID_K;             //fill device class
 8003e08:	e0fffe03 	ldbu	r3,-8(fp)
 8003e0c:	008200b4 	movhi	r2,2050
 8003e10:	10bddd04 	addi	r2,r2,-2188
 8003e14:	180690fa 	slli	r3,r3,3
 8003e18:	10c5883a 	add	r2,r2,r3
 8003e1c:	10800104 	addi	r2,r2,4
 8003e20:	00c00044 	movi	r3,1
 8003e24:	10c00005 	stb	r3,0(r2)
				tmpbyte = devtable[addr].epinfo->MaxPktSize; //save max.packet size
 8003e28:	e0fffe03 	ldbu	r3,-8(fp)
 8003e2c:	008200b4 	movhi	r2,2050
 8003e30:	10bddd04 	addi	r2,r2,-2188
 8003e34:	180690fa 	slli	r3,r3,3
 8003e38:	10c5883a 	add	r2,r2,r3
 8003e3c:	10800017 	ldw	r2,0(r2)
 8003e40:	1080008b 	ldhu	r2,2(r2)
 8003e44:	e0bffd45 	stb	r2,-11(fp)
				HID_init();                         //initialize data structures
 8003e48:	80040840 	call	8004084 <HID_init>
				devtable[addr].epinfo = hid_ep; //switch endpoint information structure
 8003e4c:	e0fffe03 	ldbu	r3,-8(fp)
 8003e50:	008200b4 	movhi	r2,2050
 8003e54:	10bddd04 	addi	r2,r2,-2188
 8003e58:	180690fa 	slli	r3,r3,3
 8003e5c:	10c7883a 	add	r3,r2,r3
 8003e60:	008200b4 	movhi	r2,2050
 8003e64:	10bd8904 	addi	r2,r2,-2524
 8003e68:	18800015 	stw	r2,0(r3)
				devtable[addr].epinfo[0].MaxPktSize = tmpbyte; //fill in max.packet size
 8003e6c:	e0fffe03 	ldbu	r3,-8(fp)
 8003e70:	008200b4 	movhi	r2,2050
 8003e74:	10bddd04 	addi	r2,r2,-2188
 8003e78:	180690fa 	slli	r3,r3,3
 8003e7c:	10c5883a 	add	r2,r2,r3
 8003e80:	10800017 	ldw	r2,0(r2)
 8003e84:	e0fffd43 	ldbu	r3,-11(fp)
 8003e88:	10c0008d 	sth	r3,2(r2)
				hid_device.interface =
						data_ptr->descr.interface.bInterfaceNumber; //fill in interface number to be used in HID requests
 8003e8c:	e0bffa17 	ldw	r2,-24(fp)
 8003e90:	10800083 	ldbu	r2,2(r2)
				devtable[addr].devclass = HID_K;             //fill device class
				tmpbyte = devtable[addr].epinfo->MaxPktSize; //save max.packet size
				HID_init();                         //initialize data structures
				devtable[addr].epinfo = hid_ep; //switch endpoint information structure
				devtable[addr].epinfo[0].MaxPktSize = tmpbyte; //fill in max.packet size
				hid_device.interface =
 8003e94:	d0a82785 	stb	r2,-24418(gp)
						data_ptr->descr.interface.bInterfaceNumber; //fill in interface number to be used in HID requests
				hid_device.addr = addr;                        //fill in address
 8003e98:	e0bffe03 	ldbu	r2,-8(fp)
 8003e9c:	d0a82745 	stb	r2,-24419(gp)
				byte_ptr = byte_ptr + data_ptr->descr.config.bLength; //skip to the next descriptor
 8003ea0:	e0bffa17 	ldw	r2,-24(fp)
 8003ea4:	10800003 	ldbu	r2,0(r2)
 8003ea8:	10803fcc 	andi	r2,r2,255
 8003eac:	e0fffb17 	ldw	r3,-20(fp)
 8003eb0:	1885883a 	add	r2,r3,r2
 8003eb4:	e0bffb15 	stw	r2,-20(fp)
				data_ptr = (USB_DESCR*) byte_ptr;
 8003eb8:	e0bffb17 	ldw	r2,-20(fp)
 8003ebc:	e0bffa15 	stw	r2,-24(fp)
				while (byte_ptr < bigbuf + total_length) {
 8003ec0:	00005b06 	br	8004030 <HIDKProbe+0x3b4>
					if (data_ptr->descr.config.bDescriptorType
 8003ec4:	e0bffa17 	ldw	r2,-24(fp)
 8003ec8:	10800043 	ldbu	r2,1(r2)
 8003ecc:	10803fcc 	andi	r2,r2,255
 8003ed0:	10800160 	cmpeqi	r2,r2,5
 8003ed4:	1000091e 	bne	r2,zero,8003efc <HIDKProbe+0x280>
							!= USB_DESCRIPTOR_ENDPOINT) { //skip to endpoint descriptor
						byte_ptr = byte_ptr + data_ptr->descr.config.bLength;
 8003ed8:	e0bffa17 	ldw	r2,-24(fp)
 8003edc:	10800003 	ldbu	r2,0(r2)
 8003ee0:	10803fcc 	andi	r2,r2,255
 8003ee4:	e0fffb17 	ldw	r3,-20(fp)
 8003ee8:	1885883a 	add	r2,r3,r2
 8003eec:	e0bffb15 	stw	r2,-20(fp)
						data_ptr = (USB_DESCR*) byte_ptr;
 8003ef0:	e0bffb17 	ldw	r2,-20(fp)
 8003ef4:	e0bffa15 	stw	r2,-24(fp)
 8003ef8:	00004d06 	br	8004030 <HIDKProbe+0x3b4>
					} else {
						/* fill endpoint information structure */
						devtable[addr].epinfo[1].epAddr =
 8003efc:	e0fffe03 	ldbu	r3,-8(fp)
 8003f00:	008200b4 	movhi	r2,2050
 8003f04:	10bddd04 	addi	r2,r2,-2188
 8003f08:	180690fa 	slli	r3,r3,3
 8003f0c:	10c5883a 	add	r2,r2,r3
 8003f10:	10800017 	ldw	r2,0(r2)
 8003f14:	10800204 	addi	r2,r2,8
								data_ptr->descr.endpoint.bEndpointAddress;
 8003f18:	e0fffa17 	ldw	r3,-24(fp)
 8003f1c:	18c00083 	ldbu	r3,2(r3)
							!= USB_DESCRIPTOR_ENDPOINT) { //skip to endpoint descriptor
						byte_ptr = byte_ptr + data_ptr->descr.config.bLength;
						data_ptr = (USB_DESCR*) byte_ptr;
					} else {
						/* fill endpoint information structure */
						devtable[addr].epinfo[1].epAddr =
 8003f20:	10c00005 	stb	r3,0(r2)
								data_ptr->descr.endpoint.bEndpointAddress;
						devtable[addr].epinfo[1].Attr =
 8003f24:	e0fffe03 	ldbu	r3,-8(fp)
 8003f28:	008200b4 	movhi	r2,2050
 8003f2c:	10bddd04 	addi	r2,r2,-2188
 8003f30:	180690fa 	slli	r3,r3,3
 8003f34:	10c5883a 	add	r2,r2,r3
 8003f38:	10800017 	ldw	r2,0(r2)
 8003f3c:	10800204 	addi	r2,r2,8
								data_ptr->descr.endpoint.bmAttributes;
 8003f40:	e0fffa17 	ldw	r3,-24(fp)
 8003f44:	18c000c3 	ldbu	r3,3(r3)
						data_ptr = (USB_DESCR*) byte_ptr;
					} else {
						/* fill endpoint information structure */
						devtable[addr].epinfo[1].epAddr =
								data_ptr->descr.endpoint.bEndpointAddress;
						devtable[addr].epinfo[1].Attr =
 8003f48:	10c00045 	stb	r3,1(r2)
								data_ptr->descr.endpoint.bmAttributes;
						devtable[addr].epinfo[1].MaxPktSize =
 8003f4c:	e0fffe03 	ldbu	r3,-8(fp)
 8003f50:	008200b4 	movhi	r2,2050
 8003f54:	10bddd04 	addi	r2,r2,-2188
 8003f58:	180690fa 	slli	r3,r3,3
 8003f5c:	10c5883a 	add	r2,r2,r3
 8003f60:	10800017 	ldw	r2,0(r2)
 8003f64:	10800204 	addi	r2,r2,8
								data_ptr->descr.endpoint.wMaxPacketSize;
 8003f68:	e0fffa17 	ldw	r3,-24(fp)
 8003f6c:	18c0010b 	ldhu	r3,4(r3)
						/* fill endpoint information structure */
						devtable[addr].epinfo[1].epAddr =
								data_ptr->descr.endpoint.bEndpointAddress;
						devtable[addr].epinfo[1].Attr =
								data_ptr->descr.endpoint.bmAttributes;
						devtable[addr].epinfo[1].MaxPktSize =
 8003f70:	10c0008d 	sth	r3,2(r2)
								data_ptr->descr.endpoint.wMaxPacketSize;
						devtable[addr].epinfo[1].Interval =
 8003f74:	e0fffe03 	ldbu	r3,-8(fp)
 8003f78:	008200b4 	movhi	r2,2050
 8003f7c:	10bddd04 	addi	r2,r2,-2188
 8003f80:	180690fa 	slli	r3,r3,3
 8003f84:	10c5883a 	add	r2,r2,r3
 8003f88:	10800017 	ldw	r2,0(r2)
 8003f8c:	10800204 	addi	r2,r2,8
								data_ptr->descr.endpoint.bInterval;
 8003f90:	e0fffa17 	ldw	r3,-24(fp)
 8003f94:	18c00183 	ldbu	r3,6(r3)
								data_ptr->descr.endpoint.bEndpointAddress;
						devtable[addr].epinfo[1].Attr =
								data_ptr->descr.endpoint.bmAttributes;
						devtable[addr].epinfo[1].MaxPktSize =
								data_ptr->descr.endpoint.wMaxPacketSize;
						devtable[addr].epinfo[1].Interval =
 8003f98:	10c00105 	stb	r3,4(r2)
								data_ptr->descr.endpoint.bInterval;
						/* configure device */
						rcode = XferSetConf(addr, 0, confvalue); //set configuration
 8003f9c:	e0fffe03 	ldbu	r3,-8(fp)
 8003fa0:	e0bffc43 	ldbu	r2,-15(fp)
 8003fa4:	d8000415 	stw	zero,16(sp)
 8003fa8:	d8000315 	stw	zero,12(sp)
 8003fac:	d8000215 	stw	zero,8(sp)
 8003fb0:	d8000115 	stw	zero,4(sp)
 8003fb4:	d8800015 	stw	r2,0(sp)
 8003fb8:	01c00244 	movi	r7,9
 8003fbc:	000d883a 	mov	r6,zero
 8003fc0:	000b883a 	mov	r5,zero
 8003fc4:	1809883a 	mov	r4,r3
 8003fc8:	80049600 	call	8004960 <XferCtrlReq>
 8003fcc:	e0bffc05 	stb	r2,-16(fp)
						if (rcode) {   //error handling
 8003fd0:	e0bffc03 	ldbu	r2,-16(fp)
 8003fd4:	10000226 	beq	r2,zero,8003fe0 <HIDKProbe+0x364>
							return (FALSE);
 8003fd8:	0005883a 	mov	r2,zero
 8003fdc:	00002406 	br	8004070 <HIDKProbe+0x3f4>
						}
						rcode = XferSetProto(addr, 0, hid_device.interface,
 8003fe0:	e0fffe03 	ldbu	r3,-8(fp)
 8003fe4:	d0a82783 	ldbu	r2,-24418(gp)
 8003fe8:	10803fcc 	andi	r2,r2,255
 8003fec:	d8000415 	stw	zero,16(sp)
 8003ff0:	d8000315 	stw	zero,12(sp)
 8003ff4:	d8800215 	stw	r2,8(sp)
 8003ff8:	d8000115 	stw	zero,4(sp)
 8003ffc:	d8000015 	stw	zero,0(sp)
 8004000:	01c002c4 	movi	r7,11
 8004004:	01800844 	movi	r6,33
 8004008:	000b883a 	mov	r5,zero
 800400c:	1809883a 	mov	r4,r3
 8004010:	80049600 	call	8004960 <XferCtrlReq>
 8004014:	e0bffc05 	stb	r2,-16(fp)
								BOOT_PROTOCOL);
						if (rcode) {   //error handling
 8004018:	e0bffc03 	ldbu	r2,-16(fp)
 800401c:	10000226 	beq	r2,zero,8004028 <HIDKProbe+0x3ac>
							return (FALSE);
 8004020:	0005883a 	mov	r2,zero
 8004024:	00001206 	br	8004070 <HIDKProbe+0x3f4>
						} else {
							return (TRUE);
 8004028:	00800044 	movi	r2,1
 800402c:	00001006 	br	8004070 <HIDKProbe+0x3f4>
				hid_device.interface =
						data_ptr->descr.interface.bInterfaceNumber; //fill in interface number to be used in HID requests
				hid_device.addr = addr;                        //fill in address
				byte_ptr = byte_ptr + data_ptr->descr.config.bLength; //skip to the next descriptor
				data_ptr = (USB_DESCR*) byte_ptr;
				while (byte_ptr < bigbuf + total_length) {
 8004030:	e0fff90b 	ldhu	r3,-28(fp)
 8004034:	008200b4 	movhi	r2,2050
 8004038:	10bd9d04 	addi	r2,r2,-2444
 800403c:	1885883a 	add	r2,r3,r2
 8004040:	e0fffb17 	ldw	r3,-20(fp)
 8004044:	18bf9f36 	bltu	r3,r2,8003ec4 <__alt_data_end+0xfc003ec4>
			BYTE subclass = data_ptr->descr.interface.bInterfaceSubClass;
			BYTE protocol = data_ptr->descr.interface.bInterfaceProtocol;
